
main.elf:     file format elf32-littleriscv


Disassembly of section .text:

00100000 <start>:
  100000:	00000093          	li	ra,0
  100004:	00000193          	li	gp,0
  100008:	00000213          	li	tp,0
  10000c:	00000293          	li	t0,0
  100010:	00000313          	li	t1,0
  100014:	00000393          	li	t2,0
  100018:	00000413          	li	s0,0
  10001c:	00000493          	li	s1,0
  100020:	00000513          	li	a0,0
  100024:	00000593          	li	a1,0
  100028:	00000613          	li	a2,0
  10002c:	00000693          	li	a3,0
  100030:	00000713          	li	a4,0
  100034:	00000793          	li	a5,0
  100038:	00000813          	li	a6,0
  10003c:	00000893          	li	a7,0
  100040:	00000913          	li	s2,0
  100044:	00000993          	li	s3,0
  100048:	00000a13          	li	s4,0
  10004c:	00000a93          	li	s5,0
  100050:	00000b13          	li	s6,0
  100054:	00000b93          	li	s7,0
  100058:	00000c13          	li	s8,0
  10005c:	00000c93          	li	s9,0
  100060:	00000d13          	li	s10,0
  100064:	00000d93          	li	s11,0
  100068:	00000e13          	li	t3,0
  10006c:	00000e93          	li	t4,0
  100070:	00000f13          	li	t5,0
  100074:	00000f93          	li	t6,0
  100078:	00000513          	li	a0,0
  10007c:	00000593          	li	a1,0

00100080 <setmemloop>:
  100080:	00b52023          	sw	a1,0(a0)
  100084:	00450513          	addi	a0,a0,4
  100088:	fe254ce3          	blt	a0,sp,100080 <setmemloop>
  10008c:	00004517          	auipc	a0,0x4
  100090:	7c850513          	addi	a0,a0,1992 # 104854 <_etext>
  100094:	00000593          	li	a1,0
  100098:	07c00613          	li	a2,124
  10009c:	00c5dc63          	bge	a1,a2,1000b4 <end_init_data>

001000a0 <loop_init_data>:
  1000a0:	00052683          	lw	a3,0(a0)
  1000a4:	00d5a023          	sw	a3,0(a1)
  1000a8:	00450513          	addi	a0,a0,4
  1000ac:	00458593          	addi	a1,a1,4
  1000b0:	fec5c8e3          	blt	a1,a2,1000a0 <loop_init_data>

001000b4 <end_init_data>:
  1000b4:	07c00513          	li	a0,124
  1000b8:	53000593          	li	a1,1328
  1000bc:	00b55863          	bge	a0,a1,1000cc <end_init_bss>

001000c0 <loop_init_bss>:
  1000c0:	00052023          	sw	zero,0(a0)
  1000c4:	00450513          	addi	a0,a0,4
  1000c8:	feb54ce3          	blt	a0,a1,1000c0 <loop_init_bss>

001000cc <end_init_bss>:
  1000cc:	534040ef          	jal	ra,104600 <main>

001000d0 <loop>:
  1000d0:	0000006f          	j	1000d0 <loop>

001000d4 <GetButtonStates>:
  1000d4:	ff010113          	addi	sp,sp,-16
  1000d8:	00812623          	sw	s0,12(sp)
  1000dc:	01010413          	addi	s0,sp,16
  1000e0:	030007b7          	lui	a5,0x3000
  1000e4:	0007a783          	lw	a5,0(a5) # 3000000 <_etext+0x2efb7ac>
  1000e8:	0107d793          	srli	a5,a5,0x10
  1000ec:	0ff7f713          	andi	a4,a5,255
  1000f0:	52e00623          	sb	a4,1324(zero) # 52c <buttons>
  1000f4:	00000013          	nop
  1000f8:	00c12403          	lw	s0,12(sp)
  1000fc:	01010113          	addi	sp,sp,16
  100100:	00008067          	ret

00100104 <DisplayProjectName>:
  100104:	fe010113          	addi	sp,sp,-32
  100108:	00812e23          	sw	s0,28(sp)
  10010c:	02010413          	addi	s0,sp,32
  100110:	00300793          	li	a5,3
  100114:	fef406a3          	sb	a5,-19(s0)
  100118:	fe0407a3          	sb	zero,-17(s0)
  10011c:	4a80006f          	j	1005c4 <DisplayProjectName+0x4c0>
  100120:	fe040723          	sb	zero,-18(s0)
  100124:	4880006f          	j	1005ac <DisplayProjectName+0x4a8>
  100128:	fef44703          	lbu	a4,-17(s0)
  10012c:	00070793          	mv	a5,a4
  100130:	00279793          	slli	a5,a5,0x2
  100134:	00e787b3          	add	a5,a5,a4
  100138:	00379793          	slli	a5,a5,0x3
  10013c:	00078713          	mv	a4,a5
  100140:	fee44783          	lbu	a5,-18(s0)
  100144:	00f707b3          	add	a5,a4,a5
  100148:	00279713          	slli	a4,a5,0x2
  10014c:	052007b7          	lui	a5,0x5200
  100150:	00f707b3          	add	a5,a4,a5
  100154:	00900713          	li	a4,9
  100158:	00e7a023          	sw	a4,0(a5) # 5200000 <_etext+0x50fb7ac>
  10015c:	fef44703          	lbu	a4,-17(s0)
  100160:	fed44783          	lbu	a5,-19(s0)
  100164:	00f70a63          	beq	a4,a5,100178 <DisplayProjectName+0x74>
  100168:	fef44703          	lbu	a4,-17(s0)
  10016c:	fed44783          	lbu	a5,-19(s0)
  100170:	00478793          	addi	a5,a5,4
  100174:	00f71e63          	bne	a4,a5,100190 <DisplayProjectName+0x8c>
  100178:	fee44703          	lbu	a4,-18(s0)
  10017c:	00500793          	li	a5,5
  100180:	00e7f863          	bgeu	a5,a4,100190 <DisplayProjectName+0x8c>
  100184:	fee44703          	lbu	a4,-18(s0)
  100188:	00800793          	li	a5,8
  10018c:	02e7fc63          	bgeu	a5,a4,1001c4 <DisplayProjectName+0xc0>
  100190:	fee44703          	lbu	a4,-18(s0)
  100194:	00600793          	li	a5,6
  100198:	00f70863          	beq	a4,a5,1001a8 <DisplayProjectName+0xa4>
  10019c:	fee44703          	lbu	a4,-18(s0)
  1001a0:	00800793          	li	a5,8
  1001a4:	04f71a63          	bne	a4,a5,1001f8 <DisplayProjectName+0xf4>
  1001a8:	fef44703          	lbu	a4,-17(s0)
  1001ac:	fed44783          	lbu	a5,-19(s0)
  1001b0:	04f76463          	bltu	a4,a5,1001f8 <DisplayProjectName+0xf4>
  1001b4:	fef44703          	lbu	a4,-17(s0)
  1001b8:	fed44783          	lbu	a5,-19(s0)
  1001bc:	00478793          	addi	a5,a5,4
  1001c0:	02e7cc63          	blt	a5,a4,1001f8 <DisplayProjectName+0xf4>
  1001c4:	fef44703          	lbu	a4,-17(s0)
  1001c8:	00070793          	mv	a5,a4
  1001cc:	00279793          	slli	a5,a5,0x2
  1001d0:	00e787b3          	add	a5,a5,a4
  1001d4:	00379793          	slli	a5,a5,0x3
  1001d8:	00078713          	mv	a4,a5
  1001dc:	fee44783          	lbu	a5,-18(s0)
  1001e0:	00f707b3          	add	a5,a4,a5
  1001e4:	00279713          	slli	a4,a5,0x2
  1001e8:	052007b7          	lui	a5,0x5200
  1001ec:	00f707b3          	add	a5,a4,a5
  1001f0:	00100713          	li	a4,1
  1001f4:	00e7a023          	sw	a4,0(a5) # 5200000 <_etext+0x50fb7ac>
  1001f8:	fef44703          	lbu	a4,-17(s0)
  1001fc:	fed44783          	lbu	a5,-19(s0)
  100200:	00f70a63          	beq	a4,a5,100214 <DisplayProjectName+0x110>
  100204:	fef44703          	lbu	a4,-17(s0)
  100208:	fed44783          	lbu	a5,-19(s0)
  10020c:	00278793          	addi	a5,a5,2
  100210:	00f71e63          	bne	a4,a5,10022c <DisplayProjectName+0x128>
  100214:	fee44703          	lbu	a4,-18(s0)
  100218:	00900793          	li	a5,9
  10021c:	00e7f863          	bgeu	a5,a4,10022c <DisplayProjectName+0x128>
  100220:	fee44703          	lbu	a4,-18(s0)
  100224:	00c00793          	li	a5,12
  100228:	04e7fa63          	bgeu	a5,a4,10027c <DisplayProjectName+0x178>
  10022c:	fee44703          	lbu	a4,-18(s0)
  100230:	00a00793          	li	a5,10
  100234:	02f71063          	bne	a4,a5,100254 <DisplayProjectName+0x150>
  100238:	fef44703          	lbu	a4,-17(s0)
  10023c:	fed44783          	lbu	a5,-19(s0)
  100240:	00f76a63          	bltu	a4,a5,100254 <DisplayProjectName+0x150>
  100244:	fef44703          	lbu	a4,-17(s0)
  100248:	fed44783          	lbu	a5,-19(s0)
  10024c:	00478793          	addi	a5,a5,4
  100250:	02e7d663          	bge	a5,a4,10027c <DisplayProjectName+0x178>
  100254:	fee44703          	lbu	a4,-18(s0)
  100258:	00c00793          	li	a5,12
  10025c:	04f71a63          	bne	a4,a5,1002b0 <DisplayProjectName+0x1ac>
  100260:	fef44703          	lbu	a4,-17(s0)
  100264:	fed44783          	lbu	a5,-19(s0)
  100268:	04f76463          	bltu	a4,a5,1002b0 <DisplayProjectName+0x1ac>
  10026c:	fef44703          	lbu	a4,-17(s0)
  100270:	fed44783          	lbu	a5,-19(s0)
  100274:	00278793          	addi	a5,a5,2
  100278:	02e7cc63          	blt	a5,a4,1002b0 <DisplayProjectName+0x1ac>
  10027c:	fef44703          	lbu	a4,-17(s0)
  100280:	00070793          	mv	a5,a4
  100284:	00279793          	slli	a5,a5,0x2
  100288:	00e787b3          	add	a5,a5,a4
  10028c:	00379793          	slli	a5,a5,0x3
  100290:	00078713          	mv	a4,a5
  100294:	fee44783          	lbu	a5,-18(s0)
  100298:	00f707b3          	add	a5,a4,a5
  10029c:	00279713          	slli	a4,a5,0x2
  1002a0:	052007b7          	lui	a5,0x5200
  1002a4:	00f707b3          	add	a5,a4,a5
  1002a8:	00100713          	li	a4,1
  1002ac:	00e7a023          	sw	a4,0(a5) # 5200000 <_etext+0x50fb7ac>
  1002b0:	fef44703          	lbu	a4,-17(s0)
  1002b4:	fed44783          	lbu	a5,-19(s0)
  1002b8:	02f70263          	beq	a4,a5,1002dc <DisplayProjectName+0x1d8>
  1002bc:	fef44703          	lbu	a4,-17(s0)
  1002c0:	fed44783          	lbu	a5,-19(s0)
  1002c4:	00278793          	addi	a5,a5,2
  1002c8:	00f70a63          	beq	a4,a5,1002dc <DisplayProjectName+0x1d8>
  1002cc:	fef44703          	lbu	a4,-17(s0)
  1002d0:	fed44783          	lbu	a5,-19(s0)
  1002d4:	00478793          	addi	a5,a5,4
  1002d8:	00f71e63          	bne	a4,a5,1002f4 <DisplayProjectName+0x1f0>
  1002dc:	fee44703          	lbu	a4,-18(s0)
  1002e0:	00d00793          	li	a5,13
  1002e4:	00e7f863          	bgeu	a5,a4,1002f4 <DisplayProjectName+0x1f0>
  1002e8:	fee44703          	lbu	a4,-18(s0)
  1002ec:	01000793          	li	a5,16
  1002f0:	02e7f663          	bgeu	a5,a4,10031c <DisplayProjectName+0x218>
  1002f4:	fee44703          	lbu	a4,-18(s0)
  1002f8:	00e00793          	li	a5,14
  1002fc:	04f71a63          	bne	a4,a5,100350 <DisplayProjectName+0x24c>
  100300:	fef44703          	lbu	a4,-17(s0)
  100304:	fed44783          	lbu	a5,-19(s0)
  100308:	04f76463          	bltu	a4,a5,100350 <DisplayProjectName+0x24c>
  10030c:	fef44703          	lbu	a4,-17(s0)
  100310:	fed44783          	lbu	a5,-19(s0)
  100314:	00478793          	addi	a5,a5,4
  100318:	02e7cc63          	blt	a5,a4,100350 <DisplayProjectName+0x24c>
  10031c:	fef44703          	lbu	a4,-17(s0)
  100320:	00070793          	mv	a5,a4
  100324:	00279793          	slli	a5,a5,0x2
  100328:	00e787b3          	add	a5,a5,a4
  10032c:	00379793          	slli	a5,a5,0x3
  100330:	00078713          	mv	a4,a5
  100334:	fee44783          	lbu	a5,-18(s0)
  100338:	00f707b3          	add	a5,a4,a5
  10033c:	00279713          	slli	a4,a5,0x2
  100340:	052007b7          	lui	a5,0x5200
  100344:	00f707b3          	add	a5,a4,a5
  100348:	00100713          	li	a4,1
  10034c:	00e7a023          	sw	a4,0(a5) # 5200000 <_etext+0x50fb7ac>
  100350:	fef44703          	lbu	a4,-17(s0)
  100354:	fed44783          	lbu	a5,-19(s0)
  100358:	00f71e63          	bne	a4,a5,100374 <DisplayProjectName+0x270>
  10035c:	fee44703          	lbu	a4,-18(s0)
  100360:	01100793          	li	a5,17
  100364:	00e7f863          	bgeu	a5,a4,100374 <DisplayProjectName+0x270>
  100368:	fee44703          	lbu	a4,-18(s0)
  10036c:	01400793          	li	a5,20
  100370:	02e7fc63          	bgeu	a5,a4,1003a8 <DisplayProjectName+0x2a4>
  100374:	fee44703          	lbu	a4,-18(s0)
  100378:	01200793          	li	a5,18
  10037c:	00f70863          	beq	a4,a5,10038c <DisplayProjectName+0x288>
  100380:	fee44703          	lbu	a4,-18(s0)
  100384:	01400793          	li	a5,20
  100388:	04f71a63          	bne	a4,a5,1003dc <DisplayProjectName+0x2d8>
  10038c:	fef44703          	lbu	a4,-17(s0)
  100390:	fed44783          	lbu	a5,-19(s0)
  100394:	04f76463          	bltu	a4,a5,1003dc <DisplayProjectName+0x2d8>
  100398:	fef44703          	lbu	a4,-17(s0)
  10039c:	fed44783          	lbu	a5,-19(s0)
  1003a0:	00478793          	addi	a5,a5,4
  1003a4:	02e7cc63          	blt	a5,a4,1003dc <DisplayProjectName+0x2d8>
  1003a8:	fef44703          	lbu	a4,-17(s0)
  1003ac:	00070793          	mv	a5,a4
  1003b0:	00279793          	slli	a5,a5,0x2
  1003b4:	00e787b3          	add	a5,a5,a4
  1003b8:	00379793          	slli	a5,a5,0x3
  1003bc:	00078713          	mv	a4,a5
  1003c0:	fee44783          	lbu	a5,-18(s0)
  1003c4:	00f707b3          	add	a5,a4,a5
  1003c8:	00279713          	slli	a4,a5,0x2
  1003cc:	052007b7          	lui	a5,0x5200
  1003d0:	00f707b3          	add	a5,a4,a5
  1003d4:	00100713          	li	a4,1
  1003d8:	00e7a023          	sw	a4,0(a5) # 5200000 <_etext+0x50fb7ac>
  1003dc:	fee44703          	lbu	a4,-18(s0)
  1003e0:	01600793          	li	a5,22
  1003e4:	00f70863          	beq	a4,a5,1003f4 <DisplayProjectName+0x2f0>
  1003e8:	fee44703          	lbu	a4,-18(s0)
  1003ec:	01800793          	li	a5,24
  1003f0:	02f71863          	bne	a4,a5,100420 <DisplayProjectName+0x31c>
  1003f4:	fef44703          	lbu	a4,-17(s0)
  1003f8:	fed44783          	lbu	a5,-19(s0)
  1003fc:	02f76263          	bltu	a4,a5,100420 <DisplayProjectName+0x31c>
  100400:	fef44703          	lbu	a4,-17(s0)
  100404:	fed44783          	lbu	a5,-19(s0)
  100408:	00478793          	addi	a5,a5,4
  10040c:	00e7ca63          	blt	a5,a4,100420 <DisplayProjectName+0x31c>
  100410:	fef44703          	lbu	a4,-17(s0)
  100414:	fed44783          	lbu	a5,-19(s0)
  100418:	00278793          	addi	a5,a5,2
  10041c:	02f71063          	bne	a4,a5,10043c <DisplayProjectName+0x338>
  100420:	fee44703          	lbu	a4,-18(s0)
  100424:	01700793          	li	a5,23
  100428:	04f71463          	bne	a4,a5,100470 <DisplayProjectName+0x36c>
  10042c:	fef44703          	lbu	a4,-17(s0)
  100430:	fed44783          	lbu	a5,-19(s0)
  100434:	00278793          	addi	a5,a5,2
  100438:	02f71c63          	bne	a4,a5,100470 <DisplayProjectName+0x36c>
  10043c:	fef44703          	lbu	a4,-17(s0)
  100440:	00070793          	mv	a5,a4
  100444:	00279793          	slli	a5,a5,0x2
  100448:	00e787b3          	add	a5,a5,a4
  10044c:	00379793          	slli	a5,a5,0x3
  100450:	00078713          	mv	a4,a5
  100454:	fee44783          	lbu	a5,-18(s0)
  100458:	00f707b3          	add	a5,a4,a5
  10045c:	00279713          	slli	a4,a5,0x2
  100460:	052007b7          	lui	a5,0x5200
  100464:	00f707b3          	add	a5,a4,a5
  100468:	00200713          	li	a4,2
  10046c:	00e7a023          	sw	a4,0(a5) # 5200000 <_etext+0x50fb7ac>
  100470:	fef44703          	lbu	a4,-17(s0)
  100474:	fed44783          	lbu	a5,-19(s0)
  100478:	00f70a63          	beq	a4,a5,10048c <DisplayProjectName+0x388>
  10047c:	fef44703          	lbu	a4,-17(s0)
  100480:	fed44783          	lbu	a5,-19(s0)
  100484:	00478793          	addi	a5,a5,4
  100488:	00f71e63          	bne	a4,a5,1004a4 <DisplayProjectName+0x3a0>
  10048c:	fee44703          	lbu	a4,-18(s0)
  100490:	01900793          	li	a5,25
  100494:	00e7f863          	bgeu	a5,a4,1004a4 <DisplayProjectName+0x3a0>
  100498:	fee44703          	lbu	a4,-18(s0)
  10049c:	01c00793          	li	a5,28
  1004a0:	02e7f663          	bgeu	a5,a4,1004cc <DisplayProjectName+0x3c8>
  1004a4:	fee44703          	lbu	a4,-18(s0)
  1004a8:	01a00793          	li	a5,26
  1004ac:	04f71a63          	bne	a4,a5,100500 <DisplayProjectName+0x3fc>
  1004b0:	fef44703          	lbu	a4,-17(s0)
  1004b4:	fed44783          	lbu	a5,-19(s0)
  1004b8:	04f76463          	bltu	a4,a5,100500 <DisplayProjectName+0x3fc>
  1004bc:	fef44703          	lbu	a4,-17(s0)
  1004c0:	fed44783          	lbu	a5,-19(s0)
  1004c4:	00478793          	addi	a5,a5,4
  1004c8:	02e7cc63          	blt	a5,a4,100500 <DisplayProjectName+0x3fc>
  1004cc:	fef44703          	lbu	a4,-17(s0)
  1004d0:	00070793          	mv	a5,a4
  1004d4:	00279793          	slli	a5,a5,0x2
  1004d8:	00e787b3          	add	a5,a5,a4
  1004dc:	00379793          	slli	a5,a5,0x3
  1004e0:	00078713          	mv	a4,a5
  1004e4:	fee44783          	lbu	a5,-18(s0)
  1004e8:	00f707b3          	add	a5,a4,a5
  1004ec:	00279713          	slli	a4,a5,0x2
  1004f0:	052007b7          	lui	a5,0x5200
  1004f4:	00f707b3          	add	a5,a4,a5
  1004f8:	00200713          	li	a4,2
  1004fc:	00e7a023          	sw	a4,0(a5) # 5200000 <_etext+0x50fb7ac>
  100500:	fef44703          	lbu	a4,-17(s0)
  100504:	fed44783          	lbu	a5,-19(s0)
  100508:	00f71e63          	bne	a4,a5,100524 <DisplayProjectName+0x420>
  10050c:	fee44703          	lbu	a4,-18(s0)
  100510:	01d00793          	li	a5,29
  100514:	00e7f863          	bgeu	a5,a4,100524 <DisplayProjectName+0x420>
  100518:	fee44703          	lbu	a4,-18(s0)
  10051c:	02000793          	li	a5,32
  100520:	04e7f663          	bgeu	a5,a4,10056c <DisplayProjectName+0x468>
  100524:	fee44703          	lbu	a4,-18(s0)
  100528:	01f00793          	li	a5,31
  10052c:	02f71263          	bne	a4,a5,100550 <DisplayProjectName+0x44c>
  100530:	fed44783          	lbu	a5,-19(s0)
  100534:	00178713          	addi	a4,a5,1
  100538:	fef44783          	lbu	a5,-17(s0)
  10053c:	00f75a63          	bge	a4,a5,100550 <DisplayProjectName+0x44c>
  100540:	fef44703          	lbu	a4,-17(s0)
  100544:	fed44783          	lbu	a5,-19(s0)
  100548:	00478793          	addi	a5,a5,4
  10054c:	02e7d063          	bge	a5,a4,10056c <DisplayProjectName+0x468>
  100550:	fee44703          	lbu	a4,-18(s0)
  100554:	02000793          	li	a5,32
  100558:	04f71463          	bne	a4,a5,1005a0 <DisplayProjectName+0x49c>
  10055c:	fef44703          	lbu	a4,-17(s0)
  100560:	fed44783          	lbu	a5,-19(s0)
  100564:	00178793          	addi	a5,a5,1
  100568:	02f71c63          	bne	a4,a5,1005a0 <DisplayProjectName+0x49c>
  10056c:	fef44703          	lbu	a4,-17(s0)
  100570:	00070793          	mv	a5,a4
  100574:	00279793          	slli	a5,a5,0x2
  100578:	00e787b3          	add	a5,a5,a4
  10057c:	00379793          	slli	a5,a5,0x3
  100580:	00078713          	mv	a4,a5
  100584:	fee44783          	lbu	a5,-18(s0)
  100588:	00f707b3          	add	a5,a4,a5
  10058c:	00279713          	slli	a4,a5,0x2
  100590:	052007b7          	lui	a5,0x5200
  100594:	00f707b3          	add	a5,a4,a5
  100598:	00200713          	li	a4,2
  10059c:	00e7a023          	sw	a4,0(a5) # 5200000 <_etext+0x50fb7ac>
  1005a0:	fee44783          	lbu	a5,-18(s0)
  1005a4:	00178793          	addi	a5,a5,1
  1005a8:	fef40723          	sb	a5,-18(s0)
  1005ac:	fee44703          	lbu	a4,-18(s0)
  1005b0:	02700793          	li	a5,39
  1005b4:	b6e7fae3          	bgeu	a5,a4,100128 <DisplayProjectName+0x24>
  1005b8:	fef44783          	lbu	a5,-17(s0)
  1005bc:	00178793          	addi	a5,a5,1
  1005c0:	fef407a3          	sb	a5,-17(s0)
  1005c4:	fef44703          	lbu	a4,-17(s0)
  1005c8:	01d00793          	li	a5,29
  1005cc:	b4e7fae3          	bgeu	a5,a4,100120 <DisplayProjectName+0x1c>
  1005d0:	00000013          	nop
  1005d4:	00000013          	nop
  1005d8:	01c12403          	lw	s0,28(sp)
  1005dc:	02010113          	addi	sp,sp,32
  1005e0:	00008067          	ret

001005e4 <DisplayCompanyName>:
  1005e4:	fe010113          	addi	sp,sp,-32
  1005e8:	00812e23          	sw	s0,28(sp)
  1005ec:	02010413          	addi	s0,sp,32
  1005f0:	00b00793          	li	a5,11
  1005f4:	fef406a3          	sb	a5,-19(s0)
  1005f8:	00300793          	li	a5,3
  1005fc:	fef40623          	sb	a5,-20(s0)
  100600:	02400793          	li	a5,36
  100604:	fef405a3          	sb	a5,-21(s0)
  100608:	00e00793          	li	a5,14
  10060c:	fef40523          	sb	a5,-22(s0)
  100610:	fe0407a3          	sb	zero,-17(s0)
  100614:	2010006f          	j	101014 <DisplayCompanyName+0xa30>
  100618:	fe040723          	sb	zero,-18(s0)
  10061c:	1e10006f          	j	100ffc <DisplayCompanyName+0xa18>
  100620:	fef44703          	lbu	a4,-17(s0)
  100624:	fed44783          	lbu	a5,-19(s0)
  100628:	04f71863          	bne	a4,a5,100678 <DisplayCompanyName+0x94>
  10062c:	fee44703          	lbu	a4,-18(s0)
  100630:	fec44783          	lbu	a5,-20(s0)
  100634:	04f76263          	bltu	a4,a5,100678 <DisplayCompanyName+0x94>
  100638:	fee44703          	lbu	a4,-18(s0)
  10063c:	feb44783          	lbu	a5,-21(s0)
  100640:	02e7ec63          	bltu	a5,a4,100678 <DisplayCompanyName+0x94>
  100644:	fef44703          	lbu	a4,-17(s0)
  100648:	00070793          	mv	a5,a4
  10064c:	00279793          	slli	a5,a5,0x2
  100650:	00e787b3          	add	a5,a5,a4
  100654:	00379793          	slli	a5,a5,0x3
  100658:	00078713          	mv	a4,a5
  10065c:	fee44783          	lbu	a5,-18(s0)
  100660:	00f707b3          	add	a5,a4,a5
  100664:	00279713          	slli	a4,a5,0x2
  100668:	052007b7          	lui	a5,0x5200
  10066c:	00f707b3          	add	a5,a4,a5
  100670:	00a00713          	li	a4,10
  100674:	00e7a023          	sw	a4,0(a5) # 5200000 <_etext+0x50fb7ac>
  100678:	fee44703          	lbu	a4,-18(s0)
  10067c:	00400793          	li	a5,4
  100680:	04f71a63          	bne	a4,a5,1006d4 <DisplayCompanyName+0xf0>
  100684:	fef44703          	lbu	a4,-17(s0)
  100688:	fea44783          	lbu	a5,-22(s0)
  10068c:	04f76463          	bltu	a4,a5,1006d4 <DisplayCompanyName+0xf0>
  100690:	fef44703          	lbu	a4,-17(s0)
  100694:	fea44783          	lbu	a5,-22(s0)
  100698:	00478793          	addi	a5,a5,4
  10069c:	02e7cc63          	blt	a5,a4,1006d4 <DisplayCompanyName+0xf0>
  1006a0:	fef44703          	lbu	a4,-17(s0)
  1006a4:	00070793          	mv	a5,a4
  1006a8:	00279793          	slli	a5,a5,0x2
  1006ac:	00e787b3          	add	a5,a5,a4
  1006b0:	00379793          	slli	a5,a5,0x3
  1006b4:	00078713          	mv	a4,a5
  1006b8:	fee44783          	lbu	a5,-18(s0)
  1006bc:	00f707b3          	add	a5,a4,a5
  1006c0:	00279713          	slli	a4,a5,0x2
  1006c4:	052007b7          	lui	a5,0x5200
  1006c8:	00f707b3          	add	a5,a4,a5
  1006cc:	00700713          	li	a4,7
  1006d0:	00e7a023          	sw	a4,0(a5) # 5200000 <_etext+0x50fb7ac>
  1006d4:	fef44703          	lbu	a4,-17(s0)
  1006d8:	fea44783          	lbu	a5,-22(s0)
  1006dc:	04f71863          	bne	a4,a5,10072c <DisplayCompanyName+0x148>
  1006e0:	fee44703          	lbu	a4,-18(s0)
  1006e4:	00500793          	li	a5,5
  1006e8:	00f70863          	beq	a4,a5,1006f8 <DisplayCompanyName+0x114>
  1006ec:	fee44703          	lbu	a4,-18(s0)
  1006f0:	00600793          	li	a5,6
  1006f4:	02f71c63          	bne	a4,a5,10072c <DisplayCompanyName+0x148>
  1006f8:	fef44703          	lbu	a4,-17(s0)
  1006fc:	00070793          	mv	a5,a4
  100700:	00279793          	slli	a5,a5,0x2
  100704:	00e787b3          	add	a5,a5,a4
  100708:	00379793          	slli	a5,a5,0x3
  10070c:	00078713          	mv	a4,a5
  100710:	fee44783          	lbu	a5,-18(s0)
  100714:	00f707b3          	add	a5,a4,a5
  100718:	00279713          	slli	a4,a5,0x2
  10071c:	052007b7          	lui	a5,0x5200
  100720:	00f707b3          	add	a5,a4,a5
  100724:	00700713          	li	a4,7
  100728:	00e7a023          	sw	a4,0(a5) # 5200000 <_etext+0x50fb7ac>
  10072c:	fef44703          	lbu	a4,-17(s0)
  100730:	fea44783          	lbu	a5,-22(s0)
  100734:	00478793          	addi	a5,a5,4
  100738:	04f71863          	bne	a4,a5,100788 <DisplayCompanyName+0x1a4>
  10073c:	fee44703          	lbu	a4,-18(s0)
  100740:	00500793          	li	a5,5
  100744:	00f70863          	beq	a4,a5,100754 <DisplayCompanyName+0x170>
  100748:	fee44703          	lbu	a4,-18(s0)
  10074c:	00600793          	li	a5,6
  100750:	02f71c63          	bne	a4,a5,100788 <DisplayCompanyName+0x1a4>
  100754:	fef44703          	lbu	a4,-17(s0)
  100758:	00070793          	mv	a5,a4
  10075c:	00279793          	slli	a5,a5,0x2
  100760:	00e787b3          	add	a5,a5,a4
  100764:	00379793          	slli	a5,a5,0x3
  100768:	00078713          	mv	a4,a5
  10076c:	fee44783          	lbu	a5,-18(s0)
  100770:	00f707b3          	add	a5,a4,a5
  100774:	00279713          	slli	a4,a5,0x2
  100778:	052007b7          	lui	a5,0x5200
  10077c:	00f707b3          	add	a5,a4,a5
  100780:	00700713          	li	a4,7
  100784:	00e7a023          	sw	a4,0(a5) # 5200000 <_etext+0x50fb7ac>
  100788:	fee44703          	lbu	a4,-18(s0)
  10078c:	00800793          	li	a5,8
  100790:	04f71a63          	bne	a4,a5,1007e4 <DisplayCompanyName+0x200>
  100794:	fef44703          	lbu	a4,-17(s0)
  100798:	fea44783          	lbu	a5,-22(s0)
  10079c:	04f76463          	bltu	a4,a5,1007e4 <DisplayCompanyName+0x200>
  1007a0:	fef44703          	lbu	a4,-17(s0)
  1007a4:	fea44783          	lbu	a5,-22(s0)
  1007a8:	00478793          	addi	a5,a5,4
  1007ac:	02e7cc63          	blt	a5,a4,1007e4 <DisplayCompanyName+0x200>
  1007b0:	fef44703          	lbu	a4,-17(s0)
  1007b4:	00070793          	mv	a5,a4
  1007b8:	00279793          	slli	a5,a5,0x2
  1007bc:	00e787b3          	add	a5,a5,a4
  1007c0:	00379793          	slli	a5,a5,0x3
  1007c4:	00078713          	mv	a4,a5
  1007c8:	fee44783          	lbu	a5,-18(s0)
  1007cc:	00f707b3          	add	a5,a4,a5
  1007d0:	00279713          	slli	a4,a5,0x2
  1007d4:	052007b7          	lui	a5,0x5200
  1007d8:	00f707b3          	add	a5,a4,a5
  1007dc:	00700713          	li	a4,7
  1007e0:	00e7a023          	sw	a4,0(a5) # 5200000 <_etext+0x50fb7ac>
  1007e4:	fef44703          	lbu	a4,-17(s0)
  1007e8:	fea44783          	lbu	a5,-22(s0)
  1007ec:	00278793          	addi	a5,a5,2
  1007f0:	04f71863          	bne	a4,a5,100840 <DisplayCompanyName+0x25c>
  1007f4:	fee44703          	lbu	a4,-18(s0)
  1007f8:	00900793          	li	a5,9
  1007fc:	00f70863          	beq	a4,a5,10080c <DisplayCompanyName+0x228>
  100800:	fee44703          	lbu	a4,-18(s0)
  100804:	00a00793          	li	a5,10
  100808:	02f71c63          	bne	a4,a5,100840 <DisplayCompanyName+0x25c>
  10080c:	fef44703          	lbu	a4,-17(s0)
  100810:	00070793          	mv	a5,a4
  100814:	00279793          	slli	a5,a5,0x2
  100818:	00e787b3          	add	a5,a5,a4
  10081c:	00379793          	slli	a5,a5,0x3
  100820:	00078713          	mv	a4,a5
  100824:	fee44783          	lbu	a5,-18(s0)
  100828:	00f707b3          	add	a5,a4,a5
  10082c:	00279713          	slli	a4,a5,0x2
  100830:	052007b7          	lui	a5,0x5200
  100834:	00f707b3          	add	a5,a4,a5
  100838:	00700713          	li	a4,7
  10083c:	00e7a023          	sw	a4,0(a5) # 5200000 <_etext+0x50fb7ac>
  100840:	fee44703          	lbu	a4,-18(s0)
  100844:	00a00793          	li	a5,10
  100848:	04f71c63          	bne	a4,a5,1008a0 <DisplayCompanyName+0x2bc>
  10084c:	fea44783          	lbu	a5,-22(s0)
  100850:	00178713          	addi	a4,a5,1
  100854:	fef44783          	lbu	a5,-17(s0)
  100858:	04f75463          	bge	a4,a5,1008a0 <DisplayCompanyName+0x2bc>
  10085c:	fef44703          	lbu	a4,-17(s0)
  100860:	fea44783          	lbu	a5,-22(s0)
  100864:	00478793          	addi	a5,a5,4
  100868:	02e7cc63          	blt	a5,a4,1008a0 <DisplayCompanyName+0x2bc>
  10086c:	fef44703          	lbu	a4,-17(s0)
  100870:	00070793          	mv	a5,a4
  100874:	00279793          	slli	a5,a5,0x2
  100878:	00e787b3          	add	a5,a5,a4
  10087c:	00379793          	slli	a5,a5,0x3
  100880:	00078713          	mv	a4,a5
  100884:	fee44783          	lbu	a5,-18(s0)
  100888:	00f707b3          	add	a5,a4,a5
  10088c:	00279713          	slli	a4,a5,0x2
  100890:	052007b7          	lui	a5,0x5200
  100894:	00f707b3          	add	a5,a4,a5
  100898:	00700713          	li	a4,7
  10089c:	00e7a023          	sw	a4,0(a5) # 5200000 <_etext+0x50fb7ac>
  1008a0:	fee44703          	lbu	a4,-18(s0)
  1008a4:	00c00793          	li	a5,12
  1008a8:	04f71c63          	bne	a4,a5,100900 <DisplayCompanyName+0x31c>
  1008ac:	fea44783          	lbu	a5,-22(s0)
  1008b0:	00178713          	addi	a4,a5,1
  1008b4:	fef44783          	lbu	a5,-17(s0)
  1008b8:	04f75463          	bge	a4,a5,100900 <DisplayCompanyName+0x31c>
  1008bc:	fef44703          	lbu	a4,-17(s0)
  1008c0:	fea44783          	lbu	a5,-22(s0)
  1008c4:	00478793          	addi	a5,a5,4
  1008c8:	02e7cc63          	blt	a5,a4,100900 <DisplayCompanyName+0x31c>
  1008cc:	fef44703          	lbu	a4,-17(s0)
  1008d0:	00070793          	mv	a5,a4
  1008d4:	00279793          	slli	a5,a5,0x2
  1008d8:	00e787b3          	add	a5,a5,a4
  1008dc:	00379793          	slli	a5,a5,0x3
  1008e0:	00078713          	mv	a4,a5
  1008e4:	fee44783          	lbu	a5,-18(s0)
  1008e8:	00f707b3          	add	a5,a4,a5
  1008ec:	00279713          	slli	a4,a5,0x2
  1008f0:	052007b7          	lui	a5,0x5200
  1008f4:	00f707b3          	add	a5,a4,a5
  1008f8:	00700713          	li	a4,7
  1008fc:	00e7a023          	sw	a4,0(a5) # 5200000 <_etext+0x50fb7ac>
  100900:	fee44703          	lbu	a4,-18(s0)
  100904:	00c00793          	li	a5,12
  100908:	04f71263          	bne	a4,a5,10094c <DisplayCompanyName+0x368>
  10090c:	fef44703          	lbu	a4,-17(s0)
  100910:	fea44783          	lbu	a5,-22(s0)
  100914:	02f71c63          	bne	a4,a5,10094c <DisplayCompanyName+0x368>
  100918:	fef44703          	lbu	a4,-17(s0)
  10091c:	00070793          	mv	a5,a4
  100920:	00279793          	slli	a5,a5,0x2
  100924:	00e787b3          	add	a5,a5,a4
  100928:	00379793          	slli	a5,a5,0x3
  10092c:	00078713          	mv	a4,a5
  100930:	fee44783          	lbu	a5,-18(s0)
  100934:	00f707b3          	add	a5,a4,a5
  100938:	00279713          	slli	a4,a5,0x2
  10093c:	052007b7          	lui	a5,0x5200
  100940:	00f707b3          	add	a5,a4,a5
  100944:	00700713          	li	a4,7
  100948:	00e7a023          	sw	a4,0(a5) # 5200000 <_etext+0x50fb7ac>
  10094c:	fee44703          	lbu	a4,-18(s0)
  100950:	00e00793          	li	a5,14
  100954:	04f71a63          	bne	a4,a5,1009a8 <DisplayCompanyName+0x3c4>
  100958:	fef44703          	lbu	a4,-17(s0)
  10095c:	fea44783          	lbu	a5,-22(s0)
  100960:	04f76463          	bltu	a4,a5,1009a8 <DisplayCompanyName+0x3c4>
  100964:	fef44703          	lbu	a4,-17(s0)
  100968:	fea44783          	lbu	a5,-22(s0)
  10096c:	00478793          	addi	a5,a5,4
  100970:	02e7cc63          	blt	a5,a4,1009a8 <DisplayCompanyName+0x3c4>
  100974:	fef44703          	lbu	a4,-17(s0)
  100978:	00070793          	mv	a5,a4
  10097c:	00279793          	slli	a5,a5,0x2
  100980:	00e787b3          	add	a5,a5,a4
  100984:	00379793          	slli	a5,a5,0x3
  100988:	00078713          	mv	a4,a5
  10098c:	fee44783          	lbu	a5,-18(s0)
  100990:	00f707b3          	add	a5,a4,a5
  100994:	00279713          	slli	a4,a5,0x2
  100998:	052007b7          	lui	a5,0x5200
  10099c:	00f707b3          	add	a5,a4,a5
  1009a0:	00700713          	li	a4,7
  1009a4:	00e7a023          	sw	a4,0(a5) # 5200000 <_etext+0x50fb7ac>
  1009a8:	fee44703          	lbu	a4,-18(s0)
  1009ac:	01000793          	li	a5,16
  1009b0:	04f71c63          	bne	a4,a5,100a08 <DisplayCompanyName+0x424>
  1009b4:	fea44783          	lbu	a5,-22(s0)
  1009b8:	00178713          	addi	a4,a5,1
  1009bc:	fef44783          	lbu	a5,-17(s0)
  1009c0:	04f75463          	bge	a4,a5,100a08 <DisplayCompanyName+0x424>
  1009c4:	fef44703          	lbu	a4,-17(s0)
  1009c8:	fea44783          	lbu	a5,-22(s0)
  1009cc:	00478793          	addi	a5,a5,4
  1009d0:	02e7cc63          	blt	a5,a4,100a08 <DisplayCompanyName+0x424>
  1009d4:	fef44703          	lbu	a4,-17(s0)
  1009d8:	00070793          	mv	a5,a4
  1009dc:	00279793          	slli	a5,a5,0x2
  1009e0:	00e787b3          	add	a5,a5,a4
  1009e4:	00379793          	slli	a5,a5,0x3
  1009e8:	00078713          	mv	a4,a5
  1009ec:	fee44783          	lbu	a5,-18(s0)
  1009f0:	00f707b3          	add	a5,a4,a5
  1009f4:	00279713          	slli	a4,a5,0x2
  1009f8:	052007b7          	lui	a5,0x5200
  1009fc:	00f707b3          	add	a5,a4,a5
  100a00:	00700713          	li	a4,7
  100a04:	00e7a023          	sw	a4,0(a5) # 5200000 <_etext+0x50fb7ac>
  100a08:	fee44703          	lbu	a4,-18(s0)
  100a0c:	01000793          	li	a5,16
  100a10:	04f71263          	bne	a4,a5,100a54 <DisplayCompanyName+0x470>
  100a14:	fef44703          	lbu	a4,-17(s0)
  100a18:	fea44783          	lbu	a5,-22(s0)
  100a1c:	02f71c63          	bne	a4,a5,100a54 <DisplayCompanyName+0x470>
  100a20:	fef44703          	lbu	a4,-17(s0)
  100a24:	00070793          	mv	a5,a4
  100a28:	00279793          	slli	a5,a5,0x2
  100a2c:	00e787b3          	add	a5,a5,a4
  100a30:	00379793          	slli	a5,a5,0x3
  100a34:	00078713          	mv	a4,a5
  100a38:	fee44783          	lbu	a5,-18(s0)
  100a3c:	00f707b3          	add	a5,a4,a5
  100a40:	00279713          	slli	a4,a5,0x2
  100a44:	052007b7          	lui	a5,0x5200
  100a48:	00f707b3          	add	a5,a4,a5
  100a4c:	00700713          	li	a4,7
  100a50:	00e7a023          	sw	a4,0(a5) # 5200000 <_etext+0x50fb7ac>
  100a54:	fee44703          	lbu	a4,-18(s0)
  100a58:	01300793          	li	a5,19
  100a5c:	04f71a63          	bne	a4,a5,100ab0 <DisplayCompanyName+0x4cc>
  100a60:	fef44703          	lbu	a4,-17(s0)
  100a64:	fea44783          	lbu	a5,-22(s0)
  100a68:	04f76463          	bltu	a4,a5,100ab0 <DisplayCompanyName+0x4cc>
  100a6c:	fef44703          	lbu	a4,-17(s0)
  100a70:	fea44783          	lbu	a5,-22(s0)
  100a74:	00478793          	addi	a5,a5,4
  100a78:	02e7cc63          	blt	a5,a4,100ab0 <DisplayCompanyName+0x4cc>
  100a7c:	fef44703          	lbu	a4,-17(s0)
  100a80:	00070793          	mv	a5,a4
  100a84:	00279793          	slli	a5,a5,0x2
  100a88:	00e787b3          	add	a5,a5,a4
  100a8c:	00379793          	slli	a5,a5,0x3
  100a90:	00078713          	mv	a4,a5
  100a94:	fee44783          	lbu	a5,-18(s0)
  100a98:	00f707b3          	add	a5,a4,a5
  100a9c:	00279713          	slli	a4,a5,0x2
  100aa0:	052007b7          	lui	a5,0x5200
  100aa4:	00f707b3          	add	a5,a4,a5
  100aa8:	00a00713          	li	a4,10
  100aac:	00e7a023          	sw	a4,0(a5) # 5200000 <_etext+0x50fb7ac>
  100ab0:	fef44703          	lbu	a4,-17(s0)
  100ab4:	fea44783          	lbu	a5,-22(s0)
  100ab8:	04f71863          	bne	a4,a5,100b08 <DisplayCompanyName+0x524>
  100abc:	fee44703          	lbu	a4,-18(s0)
  100ac0:	01400793          	li	a5,20
  100ac4:	00f70863          	beq	a4,a5,100ad4 <DisplayCompanyName+0x4f0>
  100ac8:	fee44703          	lbu	a4,-18(s0)
  100acc:	01500793          	li	a5,21
  100ad0:	02f71c63          	bne	a4,a5,100b08 <DisplayCompanyName+0x524>
  100ad4:	fef44703          	lbu	a4,-17(s0)
  100ad8:	00070793          	mv	a5,a4
  100adc:	00279793          	slli	a5,a5,0x2
  100ae0:	00e787b3          	add	a5,a5,a4
  100ae4:	00379793          	slli	a5,a5,0x3
  100ae8:	00078713          	mv	a4,a5
  100aec:	fee44783          	lbu	a5,-18(s0)
  100af0:	00f707b3          	add	a5,a4,a5
  100af4:	00279713          	slli	a4,a5,0x2
  100af8:	052007b7          	lui	a5,0x5200
  100afc:	00f707b3          	add	a5,a4,a5
  100b00:	00a00713          	li	a4,10
  100b04:	00e7a023          	sw	a4,0(a5) # 5200000 <_etext+0x50fb7ac>
  100b08:	fef44703          	lbu	a4,-17(s0)
  100b0c:	fea44783          	lbu	a5,-22(s0)
  100b10:	00478793          	addi	a5,a5,4
  100b14:	04f71863          	bne	a4,a5,100b64 <DisplayCompanyName+0x580>
  100b18:	fee44703          	lbu	a4,-18(s0)
  100b1c:	01400793          	li	a5,20
  100b20:	00f70863          	beq	a4,a5,100b30 <DisplayCompanyName+0x54c>
  100b24:	fee44703          	lbu	a4,-18(s0)
  100b28:	01500793          	li	a5,21
  100b2c:	02f71c63          	bne	a4,a5,100b64 <DisplayCompanyName+0x580>
  100b30:	fef44703          	lbu	a4,-17(s0)
  100b34:	00070793          	mv	a5,a4
  100b38:	00279793          	slli	a5,a5,0x2
  100b3c:	00e787b3          	add	a5,a5,a4
  100b40:	00379793          	slli	a5,a5,0x3
  100b44:	00078713          	mv	a4,a5
  100b48:	fee44783          	lbu	a5,-18(s0)
  100b4c:	00f707b3          	add	a5,a4,a5
  100b50:	00279713          	slli	a4,a5,0x2
  100b54:	052007b7          	lui	a5,0x5200
  100b58:	00f707b3          	add	a5,a4,a5
  100b5c:	00a00713          	li	a4,10
  100b60:	00e7a023          	sw	a4,0(a5) # 5200000 <_etext+0x50fb7ac>
  100b64:	fee44703          	lbu	a4,-18(s0)
  100b68:	01700793          	li	a5,23
  100b6c:	04f71a63          	bne	a4,a5,100bc0 <DisplayCompanyName+0x5dc>
  100b70:	fef44703          	lbu	a4,-17(s0)
  100b74:	fea44783          	lbu	a5,-22(s0)
  100b78:	04f76463          	bltu	a4,a5,100bc0 <DisplayCompanyName+0x5dc>
  100b7c:	fef44703          	lbu	a4,-17(s0)
  100b80:	fea44783          	lbu	a5,-22(s0)
  100b84:	00478793          	addi	a5,a5,4
  100b88:	02e7cc63          	blt	a5,a4,100bc0 <DisplayCompanyName+0x5dc>
  100b8c:	fef44703          	lbu	a4,-17(s0)
  100b90:	00070793          	mv	a5,a4
  100b94:	00279793          	slli	a5,a5,0x2
  100b98:	00e787b3          	add	a5,a5,a4
  100b9c:	00379793          	slli	a5,a5,0x3
  100ba0:	00078713          	mv	a4,a5
  100ba4:	fee44783          	lbu	a5,-18(s0)
  100ba8:	00f707b3          	add	a5,a4,a5
  100bac:	00279713          	slli	a4,a5,0x2
  100bb0:	052007b7          	lui	a5,0x5200
  100bb4:	00f707b3          	add	a5,a4,a5
  100bb8:	00a00713          	li	a4,10
  100bbc:	00e7a023          	sw	a4,0(a5) # 5200000 <_etext+0x50fb7ac>
  100bc0:	fef44703          	lbu	a4,-17(s0)
  100bc4:	fea44783          	lbu	a5,-22(s0)
  100bc8:	00278793          	addi	a5,a5,2
  100bcc:	04f71863          	bne	a4,a5,100c1c <DisplayCompanyName+0x638>
  100bd0:	fee44703          	lbu	a4,-18(s0)
  100bd4:	01800793          	li	a5,24
  100bd8:	00f70863          	beq	a4,a5,100be8 <DisplayCompanyName+0x604>
  100bdc:	fee44703          	lbu	a4,-18(s0)
  100be0:	01900793          	li	a5,25
  100be4:	02f71c63          	bne	a4,a5,100c1c <DisplayCompanyName+0x638>
  100be8:	fef44703          	lbu	a4,-17(s0)
  100bec:	00070793          	mv	a5,a4
  100bf0:	00279793          	slli	a5,a5,0x2
  100bf4:	00e787b3          	add	a5,a5,a4
  100bf8:	00379793          	slli	a5,a5,0x3
  100bfc:	00078713          	mv	a4,a5
  100c00:	fee44783          	lbu	a5,-18(s0)
  100c04:	00f707b3          	add	a5,a4,a5
  100c08:	00279713          	slli	a4,a5,0x2
  100c0c:	052007b7          	lui	a5,0x5200
  100c10:	00f707b3          	add	a5,a4,a5
  100c14:	00a00713          	li	a4,10
  100c18:	00e7a023          	sw	a4,0(a5) # 5200000 <_etext+0x50fb7ac>
  100c1c:	fee44703          	lbu	a4,-18(s0)
  100c20:	01900793          	li	a5,25
  100c24:	04f71a63          	bne	a4,a5,100c78 <DisplayCompanyName+0x694>
  100c28:	fef44703          	lbu	a4,-17(s0)
  100c2c:	fea44783          	lbu	a5,-22(s0)
  100c30:	04f76463          	bltu	a4,a5,100c78 <DisplayCompanyName+0x694>
  100c34:	fef44703          	lbu	a4,-17(s0)
  100c38:	fea44783          	lbu	a5,-22(s0)
  100c3c:	00478793          	addi	a5,a5,4
  100c40:	02e7cc63          	blt	a5,a4,100c78 <DisplayCompanyName+0x694>
  100c44:	fef44703          	lbu	a4,-17(s0)
  100c48:	00070793          	mv	a5,a4
  100c4c:	00279793          	slli	a5,a5,0x2
  100c50:	00e787b3          	add	a5,a5,a4
  100c54:	00379793          	slli	a5,a5,0x3
  100c58:	00078713          	mv	a4,a5
  100c5c:	fee44783          	lbu	a5,-18(s0)
  100c60:	00f707b3          	add	a5,a4,a5
  100c64:	00279713          	slli	a4,a5,0x2
  100c68:	052007b7          	lui	a5,0x5200
  100c6c:	00f707b3          	add	a5,a4,a5
  100c70:	00a00713          	li	a4,10
  100c74:	00e7a023          	sw	a4,0(a5) # 5200000 <_etext+0x50fb7ac>
  100c78:	fee44703          	lbu	a4,-18(s0)
  100c7c:	01b00793          	li	a5,27
  100c80:	04f71a63          	bne	a4,a5,100cd4 <DisplayCompanyName+0x6f0>
  100c84:	fef44703          	lbu	a4,-17(s0)
  100c88:	fea44783          	lbu	a5,-22(s0)
  100c8c:	04f76463          	bltu	a4,a5,100cd4 <DisplayCompanyName+0x6f0>
  100c90:	fef44703          	lbu	a4,-17(s0)
  100c94:	fea44783          	lbu	a5,-22(s0)
  100c98:	00478793          	addi	a5,a5,4
  100c9c:	02e7cc63          	blt	a5,a4,100cd4 <DisplayCompanyName+0x6f0>
  100ca0:	fef44703          	lbu	a4,-17(s0)
  100ca4:	00070793          	mv	a5,a4
  100ca8:	00279793          	slli	a5,a5,0x2
  100cac:	00e787b3          	add	a5,a5,a4
  100cb0:	00379793          	slli	a5,a5,0x3
  100cb4:	00078713          	mv	a4,a5
  100cb8:	fee44783          	lbu	a5,-18(s0)
  100cbc:	00f707b3          	add	a5,a4,a5
  100cc0:	00279713          	slli	a4,a5,0x2
  100cc4:	052007b7          	lui	a5,0x5200
  100cc8:	00f707b3          	add	a5,a4,a5
  100ccc:	00a00713          	li	a4,10
  100cd0:	00e7a023          	sw	a4,0(a5) # 5200000 <_etext+0x50fb7ac>
  100cd4:	fee44703          	lbu	a4,-18(s0)
  100cd8:	01d00793          	li	a5,29
  100cdc:	04f71a63          	bne	a4,a5,100d30 <DisplayCompanyName+0x74c>
  100ce0:	fef44703          	lbu	a4,-17(s0)
  100ce4:	fea44783          	lbu	a5,-22(s0)
  100ce8:	04f76463          	bltu	a4,a5,100d30 <DisplayCompanyName+0x74c>
  100cec:	fef44703          	lbu	a4,-17(s0)
  100cf0:	fea44783          	lbu	a5,-22(s0)
  100cf4:	00478793          	addi	a5,a5,4
  100cf8:	02e7cc63          	blt	a5,a4,100d30 <DisplayCompanyName+0x74c>
  100cfc:	fef44703          	lbu	a4,-17(s0)
  100d00:	00070793          	mv	a5,a4
  100d04:	00279793          	slli	a5,a5,0x2
  100d08:	00e787b3          	add	a5,a5,a4
  100d0c:	00379793          	slli	a5,a5,0x3
  100d10:	00078713          	mv	a4,a5
  100d14:	fee44783          	lbu	a5,-18(s0)
  100d18:	00f707b3          	add	a5,a4,a5
  100d1c:	00279713          	slli	a4,a5,0x2
  100d20:	052007b7          	lui	a5,0x5200
  100d24:	00f707b3          	add	a5,a4,a5
  100d28:	00a00713          	li	a4,10
  100d2c:	00e7a023          	sw	a4,0(a5) # 5200000 <_etext+0x50fb7ac>
  100d30:	fef44703          	lbu	a4,-17(s0)
  100d34:	fea44783          	lbu	a5,-22(s0)
  100d38:	04f71863          	bne	a4,a5,100d88 <DisplayCompanyName+0x7a4>
  100d3c:	fee44703          	lbu	a4,-18(s0)
  100d40:	01e00793          	li	a5,30
  100d44:	00f70863          	beq	a4,a5,100d54 <DisplayCompanyName+0x770>
  100d48:	fee44703          	lbu	a4,-18(s0)
  100d4c:	01f00793          	li	a5,31
  100d50:	02f71c63          	bne	a4,a5,100d88 <DisplayCompanyName+0x7a4>
  100d54:	fef44703          	lbu	a4,-17(s0)
  100d58:	00070793          	mv	a5,a4
  100d5c:	00279793          	slli	a5,a5,0x2
  100d60:	00e787b3          	add	a5,a5,a4
  100d64:	00379793          	slli	a5,a5,0x3
  100d68:	00078713          	mv	a4,a5
  100d6c:	fee44783          	lbu	a5,-18(s0)
  100d70:	00f707b3          	add	a5,a4,a5
  100d74:	00279713          	slli	a4,a5,0x2
  100d78:	052007b7          	lui	a5,0x5200
  100d7c:	00f707b3          	add	a5,a4,a5
  100d80:	00a00713          	li	a4,10
  100d84:	00e7a023          	sw	a4,0(a5) # 5200000 <_etext+0x50fb7ac>
  100d88:	fef44703          	lbu	a4,-17(s0)
  100d8c:	fea44783          	lbu	a5,-22(s0)
  100d90:	00278793          	addi	a5,a5,2
  100d94:	04f71863          	bne	a4,a5,100de4 <DisplayCompanyName+0x800>
  100d98:	fee44703          	lbu	a4,-18(s0)
  100d9c:	01e00793          	li	a5,30
  100da0:	00f70863          	beq	a4,a5,100db0 <DisplayCompanyName+0x7cc>
  100da4:	fee44703          	lbu	a4,-18(s0)
  100da8:	01f00793          	li	a5,31
  100dac:	02f71c63          	bne	a4,a5,100de4 <DisplayCompanyName+0x800>
  100db0:	fef44703          	lbu	a4,-17(s0)
  100db4:	00070793          	mv	a5,a4
  100db8:	00279793          	slli	a5,a5,0x2
  100dbc:	00e787b3          	add	a5,a5,a4
  100dc0:	00379793          	slli	a5,a5,0x3
  100dc4:	00078713          	mv	a4,a5
  100dc8:	fee44783          	lbu	a5,-18(s0)
  100dcc:	00f707b3          	add	a5,a4,a5
  100dd0:	00279713          	slli	a4,a5,0x2
  100dd4:	052007b7          	lui	a5,0x5200
  100dd8:	00f707b3          	add	a5,a4,a5
  100ddc:	00a00713          	li	a4,10
  100de0:	00e7a023          	sw	a4,0(a5) # 5200000 <_etext+0x50fb7ac>
  100de4:	fee44703          	lbu	a4,-18(s0)
  100de8:	01f00793          	li	a5,31
  100dec:	04f71a63          	bne	a4,a5,100e40 <DisplayCompanyName+0x85c>
  100df0:	fef44703          	lbu	a4,-17(s0)
  100df4:	fea44783          	lbu	a5,-22(s0)
  100df8:	04f76463          	bltu	a4,a5,100e40 <DisplayCompanyName+0x85c>
  100dfc:	fef44703          	lbu	a4,-17(s0)
  100e00:	fea44783          	lbu	a5,-22(s0)
  100e04:	00278793          	addi	a5,a5,2
  100e08:	02e7cc63          	blt	a5,a4,100e40 <DisplayCompanyName+0x85c>
  100e0c:	fef44703          	lbu	a4,-17(s0)
  100e10:	00070793          	mv	a5,a4
  100e14:	00279793          	slli	a5,a5,0x2
  100e18:	00e787b3          	add	a5,a5,a4
  100e1c:	00379793          	slli	a5,a5,0x3
  100e20:	00078713          	mv	a4,a5
  100e24:	fee44783          	lbu	a5,-18(s0)
  100e28:	00f707b3          	add	a5,a4,a5
  100e2c:	00279713          	slli	a4,a5,0x2
  100e30:	052007b7          	lui	a5,0x5200
  100e34:	00f707b3          	add	a5,a4,a5
  100e38:	00a00713          	li	a4,10
  100e3c:	00e7a023          	sw	a4,0(a5) # 5200000 <_etext+0x50fb7ac>
  100e40:	fef44703          	lbu	a4,-17(s0)
  100e44:	fea44783          	lbu	a5,-22(s0)
  100e48:	04f71863          	bne	a4,a5,100e98 <DisplayCompanyName+0x8b4>
  100e4c:	fee44703          	lbu	a4,-18(s0)
  100e50:	02000793          	li	a5,32
  100e54:	04e7f263          	bgeu	a5,a4,100e98 <DisplayCompanyName+0x8b4>
  100e58:	fee44703          	lbu	a4,-18(s0)
  100e5c:	02300793          	li	a5,35
  100e60:	02e7ec63          	bltu	a5,a4,100e98 <DisplayCompanyName+0x8b4>
  100e64:	fef44703          	lbu	a4,-17(s0)
  100e68:	00070793          	mv	a5,a4
  100e6c:	00279793          	slli	a5,a5,0x2
  100e70:	00e787b3          	add	a5,a5,a4
  100e74:	00379793          	slli	a5,a5,0x3
  100e78:	00078713          	mv	a4,a5
  100e7c:	fee44783          	lbu	a5,-18(s0)
  100e80:	00f707b3          	add	a5,a4,a5
  100e84:	00279713          	slli	a4,a5,0x2
  100e88:	052007b7          	lui	a5,0x5200
  100e8c:	00f707b3          	add	a5,a4,a5
  100e90:	00a00713          	li	a4,10
  100e94:	00e7a023          	sw	a4,0(a5) # 5200000 <_etext+0x50fb7ac>
  100e98:	fef44703          	lbu	a4,-17(s0)
  100e9c:	fea44783          	lbu	a5,-22(s0)
  100ea0:	00278793          	addi	a5,a5,2
  100ea4:	04f71863          	bne	a4,a5,100ef4 <DisplayCompanyName+0x910>
  100ea8:	fee44703          	lbu	a4,-18(s0)
  100eac:	02000793          	li	a5,32
  100eb0:	04e7f263          	bgeu	a5,a4,100ef4 <DisplayCompanyName+0x910>
  100eb4:	fee44703          	lbu	a4,-18(s0)
  100eb8:	02300793          	li	a5,35
  100ebc:	02e7ec63          	bltu	a5,a4,100ef4 <DisplayCompanyName+0x910>
  100ec0:	fef44703          	lbu	a4,-17(s0)
  100ec4:	00070793          	mv	a5,a4
  100ec8:	00279793          	slli	a5,a5,0x2
  100ecc:	00e787b3          	add	a5,a5,a4
  100ed0:	00379793          	slli	a5,a5,0x3
  100ed4:	00078713          	mv	a4,a5
  100ed8:	fee44783          	lbu	a5,-18(s0)
  100edc:	00f707b3          	add	a5,a4,a5
  100ee0:	00279713          	slli	a4,a5,0x2
  100ee4:	052007b7          	lui	a5,0x5200
  100ee8:	00f707b3          	add	a5,a4,a5
  100eec:	00a00713          	li	a4,10
  100ef0:	00e7a023          	sw	a4,0(a5) # 5200000 <_etext+0x50fb7ac>
  100ef4:	fef44703          	lbu	a4,-17(s0)
  100ef8:	fea44783          	lbu	a5,-22(s0)
  100efc:	00478793          	addi	a5,a5,4
  100f00:	04f71863          	bne	a4,a5,100f50 <DisplayCompanyName+0x96c>
  100f04:	fee44703          	lbu	a4,-18(s0)
  100f08:	02000793          	li	a5,32
  100f0c:	04e7f263          	bgeu	a5,a4,100f50 <DisplayCompanyName+0x96c>
  100f10:	fee44703          	lbu	a4,-18(s0)
  100f14:	02300793          	li	a5,35
  100f18:	02e7ec63          	bltu	a5,a4,100f50 <DisplayCompanyName+0x96c>
  100f1c:	fef44703          	lbu	a4,-17(s0)
  100f20:	00070793          	mv	a5,a4
  100f24:	00279793          	slli	a5,a5,0x2
  100f28:	00e787b3          	add	a5,a5,a4
  100f2c:	00379793          	slli	a5,a5,0x3
  100f30:	00078713          	mv	a4,a5
  100f34:	fee44783          	lbu	a5,-18(s0)
  100f38:	00f707b3          	add	a5,a4,a5
  100f3c:	00279713          	slli	a4,a5,0x2
  100f40:	052007b7          	lui	a5,0x5200
  100f44:	00f707b3          	add	a5,a4,a5
  100f48:	00a00713          	li	a4,10
  100f4c:	00e7a023          	sw	a4,0(a5) # 5200000 <_etext+0x50fb7ac>
  100f50:	fee44703          	lbu	a4,-18(s0)
  100f54:	02100793          	li	a5,33
  100f58:	04f71463          	bne	a4,a5,100fa0 <DisplayCompanyName+0x9bc>
  100f5c:	fef44703          	lbu	a4,-17(s0)
  100f60:	fea44783          	lbu	a5,-22(s0)
  100f64:	00178793          	addi	a5,a5,1
  100f68:	02f71c63          	bne	a4,a5,100fa0 <DisplayCompanyName+0x9bc>
  100f6c:	fef44703          	lbu	a4,-17(s0)
  100f70:	00070793          	mv	a5,a4
  100f74:	00279793          	slli	a5,a5,0x2
  100f78:	00e787b3          	add	a5,a5,a4
  100f7c:	00379793          	slli	a5,a5,0x3
  100f80:	00078713          	mv	a4,a5
  100f84:	fee44783          	lbu	a5,-18(s0)
  100f88:	00f707b3          	add	a5,a4,a5
  100f8c:	00279713          	slli	a4,a5,0x2
  100f90:	052007b7          	lui	a5,0x5200
  100f94:	00f707b3          	add	a5,a4,a5
  100f98:	00a00713          	li	a4,10
  100f9c:	00e7a023          	sw	a4,0(a5) # 5200000 <_etext+0x50fb7ac>
  100fa0:	fee44703          	lbu	a4,-18(s0)
  100fa4:	02300793          	li	a5,35
  100fa8:	04f71463          	bne	a4,a5,100ff0 <DisplayCompanyName+0xa0c>
  100fac:	fef44703          	lbu	a4,-17(s0)
  100fb0:	fea44783          	lbu	a5,-22(s0)
  100fb4:	00378793          	addi	a5,a5,3
  100fb8:	02f71c63          	bne	a4,a5,100ff0 <DisplayCompanyName+0xa0c>
  100fbc:	fef44703          	lbu	a4,-17(s0)
  100fc0:	00070793          	mv	a5,a4
  100fc4:	00279793          	slli	a5,a5,0x2
  100fc8:	00e787b3          	add	a5,a5,a4
  100fcc:	00379793          	slli	a5,a5,0x3
  100fd0:	00078713          	mv	a4,a5
  100fd4:	fee44783          	lbu	a5,-18(s0)
  100fd8:	00f707b3          	add	a5,a4,a5
  100fdc:	00279713          	slli	a4,a5,0x2
  100fe0:	052007b7          	lui	a5,0x5200
  100fe4:	00f707b3          	add	a5,a4,a5
  100fe8:	00a00713          	li	a4,10
  100fec:	00e7a023          	sw	a4,0(a5) # 5200000 <_etext+0x50fb7ac>
  100ff0:	fee44783          	lbu	a5,-18(s0)
  100ff4:	00178793          	addi	a5,a5,1
  100ff8:	fef40723          	sb	a5,-18(s0)
  100ffc:	fee44703          	lbu	a4,-18(s0)
  101000:	02700793          	li	a5,39
  101004:	e0e7fe63          	bgeu	a5,a4,100620 <DisplayCompanyName+0x3c>
  101008:	fef44783          	lbu	a5,-17(s0)
  10100c:	00178793          	addi	a5,a5,1
  101010:	fef407a3          	sb	a5,-17(s0)
  101014:	fef44703          	lbu	a4,-17(s0)
  101018:	01d00793          	li	a5,29
  10101c:	dee7fe63          	bgeu	a5,a4,100618 <DisplayCompanyName+0x34>
  101020:	00000013          	nop
  101024:	00000013          	nop
  101028:	01c12403          	lw	s0,28(sp)
  10102c:	02010113          	addi	sp,sp,32
  101030:	00008067          	ret

00101034 <DisplayGameName>:
  101034:	fe010113          	addi	sp,sp,-32
  101038:	00812e23          	sw	s0,28(sp)
  10103c:	02010413          	addi	s0,sp,32
  101040:	01600793          	li	a5,22
  101044:	fef406a3          	sb	a5,-19(s0)
  101048:	fe0407a3          	sb	zero,-17(s0)
  10104c:	2450006f          	j	101a90 <DisplayGameName+0xa5c>
  101050:	fe040723          	sb	zero,-18(s0)
  101054:	2250006f          	j	101a78 <DisplayGameName+0xa44>
  101058:	fef44703          	lbu	a4,-17(s0)
  10105c:	fed44783          	lbu	a5,-19(s0)
  101060:	04f71863          	bne	a4,a5,1010b0 <DisplayGameName+0x7c>
  101064:	fee44703          	lbu	a4,-18(s0)
  101068:	00200793          	li	a5,2
  10106c:	04e7f263          	bgeu	a5,a4,1010b0 <DisplayGameName+0x7c>
  101070:	fee44703          	lbu	a4,-18(s0)
  101074:	00500793          	li	a5,5
  101078:	02e7ec63          	bltu	a5,a4,1010b0 <DisplayGameName+0x7c>
  10107c:	fef44703          	lbu	a4,-17(s0)
  101080:	00070793          	mv	a5,a4
  101084:	00279793          	slli	a5,a5,0x2
  101088:	00e787b3          	add	a5,a5,a4
  10108c:	00379793          	slli	a5,a5,0x3
  101090:	00078713          	mv	a4,a5
  101094:	fee44783          	lbu	a5,-18(s0)
  101098:	00f707b3          	add	a5,a4,a5
  10109c:	00279713          	slli	a4,a5,0x2
  1010a0:	052007b7          	lui	a5,0x5200
  1010a4:	00f707b3          	add	a5,a4,a5
  1010a8:	00200713          	li	a4,2
  1010ac:	00e7a023          	sw	a4,0(a5) # 5200000 <_etext+0x50fb7ac>
  1010b0:	fee44703          	lbu	a4,-18(s0)
  1010b4:	00400793          	li	a5,4
  1010b8:	04f71a63          	bne	a4,a5,10110c <DisplayGameName+0xd8>
  1010bc:	fef44703          	lbu	a4,-17(s0)
  1010c0:	fed44783          	lbu	a5,-19(s0)
  1010c4:	04f76463          	bltu	a4,a5,10110c <DisplayGameName+0xd8>
  1010c8:	fef44703          	lbu	a4,-17(s0)
  1010cc:	fed44783          	lbu	a5,-19(s0)
  1010d0:	00478793          	addi	a5,a5,4
  1010d4:	02e7cc63          	blt	a5,a4,10110c <DisplayGameName+0xd8>
  1010d8:	fef44703          	lbu	a4,-17(s0)
  1010dc:	00070793          	mv	a5,a4
  1010e0:	00279793          	slli	a5,a5,0x2
  1010e4:	00e787b3          	add	a5,a5,a4
  1010e8:	00379793          	slli	a5,a5,0x3
  1010ec:	00078713          	mv	a4,a5
  1010f0:	fee44783          	lbu	a5,-18(s0)
  1010f4:	00f707b3          	add	a5,a4,a5
  1010f8:	00279713          	slli	a4,a5,0x2
  1010fc:	052007b7          	lui	a5,0x5200
  101100:	00f707b3          	add	a5,a4,a5
  101104:	00200713          	li	a4,2
  101108:	00e7a023          	sw	a4,0(a5) # 5200000 <_etext+0x50fb7ac>
  10110c:	fee44703          	lbu	a4,-18(s0)
  101110:	00700793          	li	a5,7
  101114:	04f71a63          	bne	a4,a5,101168 <DisplayGameName+0x134>
  101118:	fef44703          	lbu	a4,-17(s0)
  10111c:	fed44783          	lbu	a5,-19(s0)
  101120:	04f76463          	bltu	a4,a5,101168 <DisplayGameName+0x134>
  101124:	fef44703          	lbu	a4,-17(s0)
  101128:	fed44783          	lbu	a5,-19(s0)
  10112c:	00478793          	addi	a5,a5,4
  101130:	02e7cc63          	blt	a5,a4,101168 <DisplayGameName+0x134>
  101134:	fef44703          	lbu	a4,-17(s0)
  101138:	00070793          	mv	a5,a4
  10113c:	00279793          	slli	a5,a5,0x2
  101140:	00e787b3          	add	a5,a5,a4
  101144:	00379793          	slli	a5,a5,0x3
  101148:	00078713          	mv	a4,a5
  10114c:	fee44783          	lbu	a5,-18(s0)
  101150:	00f707b3          	add	a5,a4,a5
  101154:	00279713          	slli	a4,a5,0x2
  101158:	052007b7          	lui	a5,0x5200
  10115c:	00f707b3          	add	a5,a4,a5
  101160:	00200713          	li	a4,2
  101164:	00e7a023          	sw	a4,0(a5) # 5200000 <_etext+0x50fb7ac>
  101168:	fee44703          	lbu	a4,-18(s0)
  10116c:	00800793          	li	a5,8
  101170:	06f71263          	bne	a4,a5,1011d4 <DisplayGameName+0x1a0>
  101174:	fef44703          	lbu	a4,-17(s0)
  101178:	fed44783          	lbu	a5,-19(s0)
  10117c:	02f70263          	beq	a4,a5,1011a0 <DisplayGameName+0x16c>
  101180:	fef44703          	lbu	a4,-17(s0)
  101184:	fed44783          	lbu	a5,-19(s0)
  101188:	00278793          	addi	a5,a5,2
  10118c:	00f70a63          	beq	a4,a5,1011a0 <DisplayGameName+0x16c>
  101190:	fef44703          	lbu	a4,-17(s0)
  101194:	fed44783          	lbu	a5,-19(s0)
  101198:	00478793          	addi	a5,a5,4
  10119c:	02f71c63          	bne	a4,a5,1011d4 <DisplayGameName+0x1a0>
  1011a0:	fef44703          	lbu	a4,-17(s0)
  1011a4:	00070793          	mv	a5,a4
  1011a8:	00279793          	slli	a5,a5,0x2
  1011ac:	00e787b3          	add	a5,a5,a4
  1011b0:	00379793          	slli	a5,a5,0x3
  1011b4:	00078713          	mv	a4,a5
  1011b8:	fee44783          	lbu	a5,-18(s0)
  1011bc:	00f707b3          	add	a5,a4,a5
  1011c0:	00279713          	slli	a4,a5,0x2
  1011c4:	052007b7          	lui	a5,0x5200
  1011c8:	00f707b3          	add	a5,a4,a5
  1011cc:	00200713          	li	a4,2
  1011d0:	00e7a023          	sw	a4,0(a5) # 5200000 <_etext+0x50fb7ac>
  1011d4:	fef44703          	lbu	a4,-17(s0)
  1011d8:	fed44783          	lbu	a5,-19(s0)
  1011dc:	04f71863          	bne	a4,a5,10122c <DisplayGameName+0x1f8>
  1011e0:	fee44703          	lbu	a4,-18(s0)
  1011e4:	00900793          	li	a5,9
  1011e8:	04e7f263          	bgeu	a5,a4,10122c <DisplayGameName+0x1f8>
  1011ec:	fee44703          	lbu	a4,-18(s0)
  1011f0:	00c00793          	li	a5,12
  1011f4:	02e7ec63          	bltu	a5,a4,10122c <DisplayGameName+0x1f8>
  1011f8:	fef44703          	lbu	a4,-17(s0)
  1011fc:	00070793          	mv	a5,a4
  101200:	00279793          	slli	a5,a5,0x2
  101204:	00e787b3          	add	a5,a5,a4
  101208:	00379793          	slli	a5,a5,0x3
  10120c:	00078713          	mv	a4,a5
  101210:	fee44783          	lbu	a5,-18(s0)
  101214:	00f707b3          	add	a5,a4,a5
  101218:	00279713          	slli	a4,a5,0x2
  10121c:	052007b7          	lui	a5,0x5200
  101220:	00f707b3          	add	a5,a4,a5
  101224:	00200713          	li	a4,2
  101228:	00e7a023          	sw	a4,0(a5) # 5200000 <_etext+0x50fb7ac>
  10122c:	fee44703          	lbu	a4,-18(s0)
  101230:	00b00793          	li	a5,11
  101234:	04f71a63          	bne	a4,a5,101288 <DisplayGameName+0x254>
  101238:	fef44703          	lbu	a4,-17(s0)
  10123c:	fed44783          	lbu	a5,-19(s0)
  101240:	04f76463          	bltu	a4,a5,101288 <DisplayGameName+0x254>
  101244:	fef44703          	lbu	a4,-17(s0)
  101248:	fed44783          	lbu	a5,-19(s0)
  10124c:	00478793          	addi	a5,a5,4
  101250:	02e7cc63          	blt	a5,a4,101288 <DisplayGameName+0x254>
  101254:	fef44703          	lbu	a4,-17(s0)
  101258:	00070793          	mv	a5,a4
  10125c:	00279793          	slli	a5,a5,0x2
  101260:	00e787b3          	add	a5,a5,a4
  101264:	00379793          	slli	a5,a5,0x3
  101268:	00078713          	mv	a4,a5
  10126c:	fee44783          	lbu	a5,-18(s0)
  101270:	00f707b3          	add	a5,a4,a5
  101274:	00279713          	slli	a4,a5,0x2
  101278:	052007b7          	lui	a5,0x5200
  10127c:	00f707b3          	add	a5,a4,a5
  101280:	00200713          	li	a4,2
  101284:	00e7a023          	sw	a4,0(a5) # 5200000 <_etext+0x50fb7ac>
  101288:	fee44703          	lbu	a4,-18(s0)
  10128c:	00e00793          	li	a5,14
  101290:	04f71a63          	bne	a4,a5,1012e4 <DisplayGameName+0x2b0>
  101294:	fef44703          	lbu	a4,-17(s0)
  101298:	fed44783          	lbu	a5,-19(s0)
  10129c:	04f76463          	bltu	a4,a5,1012e4 <DisplayGameName+0x2b0>
  1012a0:	fef44703          	lbu	a4,-17(s0)
  1012a4:	fed44783          	lbu	a5,-19(s0)
  1012a8:	00478793          	addi	a5,a5,4
  1012ac:	02e7cc63          	blt	a5,a4,1012e4 <DisplayGameName+0x2b0>
  1012b0:	fef44703          	lbu	a4,-17(s0)
  1012b4:	00070793          	mv	a5,a4
  1012b8:	00279793          	slli	a5,a5,0x2
  1012bc:	00e787b3          	add	a5,a5,a4
  1012c0:	00379793          	slli	a5,a5,0x3
  1012c4:	00078713          	mv	a4,a5
  1012c8:	fee44783          	lbu	a5,-18(s0)
  1012cc:	00f707b3          	add	a5,a4,a5
  1012d0:	00279713          	slli	a4,a5,0x2
  1012d4:	052007b7          	lui	a5,0x5200
  1012d8:	00f707b3          	add	a5,a4,a5
  1012dc:	00200713          	li	a4,2
  1012e0:	00e7a023          	sw	a4,0(a5) # 5200000 <_etext+0x50fb7ac>
  1012e4:	fee44703          	lbu	a4,-18(s0)
  1012e8:	00f00793          	li	a5,15
  1012ec:	04f71263          	bne	a4,a5,101330 <DisplayGameName+0x2fc>
  1012f0:	fef44703          	lbu	a4,-17(s0)
  1012f4:	fed44783          	lbu	a5,-19(s0)
  1012f8:	02f71c63          	bne	a4,a5,101330 <DisplayGameName+0x2fc>
  1012fc:	fef44703          	lbu	a4,-17(s0)
  101300:	00070793          	mv	a5,a4
  101304:	00279793          	slli	a5,a5,0x2
  101308:	00e787b3          	add	a5,a5,a4
  10130c:	00379793          	slli	a5,a5,0x3
  101310:	00078713          	mv	a4,a5
  101314:	fee44783          	lbu	a5,-18(s0)
  101318:	00f707b3          	add	a5,a4,a5
  10131c:	00279713          	slli	a4,a5,0x2
  101320:	052007b7          	lui	a5,0x5200
  101324:	00f707b3          	add	a5,a4,a5
  101328:	00200713          	li	a4,2
  10132c:	00e7a023          	sw	a4,0(a5) # 5200000 <_etext+0x50fb7ac>
  101330:	fee44703          	lbu	a4,-18(s0)
  101334:	01000793          	li	a5,16
  101338:	04f71463          	bne	a4,a5,101380 <DisplayGameName+0x34c>
  10133c:	fef44703          	lbu	a4,-17(s0)
  101340:	fed44783          	lbu	a5,-19(s0)
  101344:	00178793          	addi	a5,a5,1
  101348:	02f71c63          	bne	a4,a5,101380 <DisplayGameName+0x34c>
  10134c:	fef44703          	lbu	a4,-17(s0)
  101350:	00070793          	mv	a5,a4
  101354:	00279793          	slli	a5,a5,0x2
  101358:	00e787b3          	add	a5,a5,a4
  10135c:	00379793          	slli	a5,a5,0x3
  101360:	00078713          	mv	a4,a5
  101364:	fee44783          	lbu	a5,-18(s0)
  101368:	00f707b3          	add	a5,a4,a5
  10136c:	00279713          	slli	a4,a5,0x2
  101370:	052007b7          	lui	a5,0x5200
  101374:	00f707b3          	add	a5,a4,a5
  101378:	00200713          	li	a4,2
  10137c:	00e7a023          	sw	a4,0(a5) # 5200000 <_etext+0x50fb7ac>
  101380:	fee44703          	lbu	a4,-18(s0)
  101384:	00f00793          	li	a5,15
  101388:	04f71463          	bne	a4,a5,1013d0 <DisplayGameName+0x39c>
  10138c:	fef44703          	lbu	a4,-17(s0)
  101390:	fed44783          	lbu	a5,-19(s0)
  101394:	00278793          	addi	a5,a5,2
  101398:	02f71c63          	bne	a4,a5,1013d0 <DisplayGameName+0x39c>
  10139c:	fef44703          	lbu	a4,-17(s0)
  1013a0:	00070793          	mv	a5,a4
  1013a4:	00279793          	slli	a5,a5,0x2
  1013a8:	00e787b3          	add	a5,a5,a4
  1013ac:	00379793          	slli	a5,a5,0x3
  1013b0:	00078713          	mv	a4,a5
  1013b4:	fee44783          	lbu	a5,-18(s0)
  1013b8:	00f707b3          	add	a5,a4,a5
  1013bc:	00279713          	slli	a4,a5,0x2
  1013c0:	052007b7          	lui	a5,0x5200
  1013c4:	00f707b3          	add	a5,a4,a5
  1013c8:	00200713          	li	a4,2
  1013cc:	00e7a023          	sw	a4,0(a5) # 5200000 <_etext+0x50fb7ac>
  1013d0:	fee44703          	lbu	a4,-18(s0)
  1013d4:	01000793          	li	a5,16
  1013d8:	04f71c63          	bne	a4,a5,101430 <DisplayGameName+0x3fc>
  1013dc:	fef44703          	lbu	a4,-17(s0)
  1013e0:	fed44783          	lbu	a5,-19(s0)
  1013e4:	00378793          	addi	a5,a5,3
  1013e8:	00f70a63          	beq	a4,a5,1013fc <DisplayGameName+0x3c8>
  1013ec:	fef44703          	lbu	a4,-17(s0)
  1013f0:	fed44783          	lbu	a5,-19(s0)
  1013f4:	00478793          	addi	a5,a5,4
  1013f8:	02f71c63          	bne	a4,a5,101430 <DisplayGameName+0x3fc>
  1013fc:	fef44703          	lbu	a4,-17(s0)
  101400:	00070793          	mv	a5,a4
  101404:	00279793          	slli	a5,a5,0x2
  101408:	00e787b3          	add	a5,a5,a4
  10140c:	00379793          	slli	a5,a5,0x3
  101410:	00078713          	mv	a4,a5
  101414:	fee44783          	lbu	a5,-18(s0)
  101418:	00f707b3          	add	a5,a4,a5
  10141c:	00279713          	slli	a4,a5,0x2
  101420:	052007b7          	lui	a5,0x5200
  101424:	00f707b3          	add	a5,a4,a5
  101428:	00200713          	li	a4,2
  10142c:	00e7a023          	sw	a4,0(a5) # 5200000 <_etext+0x50fb7ac>
  101430:	fee44703          	lbu	a4,-18(s0)
  101434:	01200793          	li	a5,18
  101438:	04f71a63          	bne	a4,a5,10148c <DisplayGameName+0x458>
  10143c:	fef44703          	lbu	a4,-17(s0)
  101440:	fed44783          	lbu	a5,-19(s0)
  101444:	04f76463          	bltu	a4,a5,10148c <DisplayGameName+0x458>
  101448:	fef44703          	lbu	a4,-17(s0)
  10144c:	fed44783          	lbu	a5,-19(s0)
  101450:	00478793          	addi	a5,a5,4
  101454:	02e7cc63          	blt	a5,a4,10148c <DisplayGameName+0x458>
  101458:	fef44703          	lbu	a4,-17(s0)
  10145c:	00070793          	mv	a5,a4
  101460:	00279793          	slli	a5,a5,0x2
  101464:	00e787b3          	add	a5,a5,a4
  101468:	00379793          	slli	a5,a5,0x3
  10146c:	00078713          	mv	a4,a5
  101470:	fee44783          	lbu	a5,-18(s0)
  101474:	00f707b3          	add	a5,a4,a5
  101478:	00279713          	slli	a4,a5,0x2
  10147c:	052007b7          	lui	a5,0x5200
  101480:	00f707b3          	add	a5,a4,a5
  101484:	00200713          	li	a4,2
  101488:	00e7a023          	sw	a4,0(a5) # 5200000 <_etext+0x50fb7ac>
  10148c:	fef44703          	lbu	a4,-17(s0)
  101490:	fed44783          	lbu	a5,-19(s0)
  101494:	04f71863          	bne	a4,a5,1014e4 <DisplayGameName+0x4b0>
  101498:	fee44703          	lbu	a4,-18(s0)
  10149c:	01400793          	li	a5,20
  1014a0:	00f70863          	beq	a4,a5,1014b0 <DisplayGameName+0x47c>
  1014a4:	fee44703          	lbu	a4,-18(s0)
  1014a8:	01500793          	li	a5,21
  1014ac:	02f71c63          	bne	a4,a5,1014e4 <DisplayGameName+0x4b0>
  1014b0:	fef44703          	lbu	a4,-17(s0)
  1014b4:	00070793          	mv	a5,a4
  1014b8:	00279793          	slli	a5,a5,0x2
  1014bc:	00e787b3          	add	a5,a5,a4
  1014c0:	00379793          	slli	a5,a5,0x3
  1014c4:	00078713          	mv	a4,a5
  1014c8:	fee44783          	lbu	a5,-18(s0)
  1014cc:	00f707b3          	add	a5,a4,a5
  1014d0:	00279713          	slli	a4,a5,0x2
  1014d4:	052007b7          	lui	a5,0x5200
  1014d8:	00f707b3          	add	a5,a4,a5
  1014dc:	00700713          	li	a4,7
  1014e0:	00e7a023          	sw	a4,0(a5) # 5200000 <_etext+0x50fb7ac>
  1014e4:	fee44703          	lbu	a4,-18(s0)
  1014e8:	01400793          	li	a5,20
  1014ec:	06f71463          	bne	a4,a5,101554 <DisplayGameName+0x520>
  1014f0:	fef44703          	lbu	a4,-17(s0)
  1014f4:	fed44783          	lbu	a5,-19(s0)
  1014f8:	00178793          	addi	a5,a5,1
  1014fc:	02f70263          	beq	a4,a5,101520 <DisplayGameName+0x4ec>
  101500:	fef44703          	lbu	a4,-17(s0)
  101504:	fed44783          	lbu	a5,-19(s0)
  101508:	00278793          	addi	a5,a5,2
  10150c:	00f70a63          	beq	a4,a5,101520 <DisplayGameName+0x4ec>
  101510:	fef44703          	lbu	a4,-17(s0)
  101514:	fed44783          	lbu	a5,-19(s0)
  101518:	00478793          	addi	a5,a5,4
  10151c:	02f71c63          	bne	a4,a5,101554 <DisplayGameName+0x520>
  101520:	fef44703          	lbu	a4,-17(s0)
  101524:	00070793          	mv	a5,a4
  101528:	00279793          	slli	a5,a5,0x2
  10152c:	00e787b3          	add	a5,a5,a4
  101530:	00379793          	slli	a5,a5,0x3
  101534:	00078713          	mv	a4,a5
  101538:	fee44783          	lbu	a5,-18(s0)
  10153c:	00f707b3          	add	a5,a4,a5
  101540:	00279713          	slli	a4,a5,0x2
  101544:	052007b7          	lui	a5,0x5200
  101548:	00f707b3          	add	a5,a4,a5
  10154c:	00700713          	li	a4,7
  101550:	00e7a023          	sw	a4,0(a5) # 5200000 <_etext+0x50fb7ac>
  101554:	fee44703          	lbu	a4,-18(s0)
  101558:	01500793          	li	a5,21
  10155c:	04f71c63          	bne	a4,a5,1015b4 <DisplayGameName+0x580>
  101560:	fed44783          	lbu	a5,-19(s0)
  101564:	00178713          	addi	a4,a5,1
  101568:	fef44783          	lbu	a5,-17(s0)
  10156c:	04f75463          	bge	a4,a5,1015b4 <DisplayGameName+0x580>
  101570:	fef44703          	lbu	a4,-17(s0)
  101574:	fed44783          	lbu	a5,-19(s0)
  101578:	00478793          	addi	a5,a5,4
  10157c:	02e7cc63          	blt	a5,a4,1015b4 <DisplayGameName+0x580>
  101580:	fef44703          	lbu	a4,-17(s0)
  101584:	00070793          	mv	a5,a4
  101588:	00279793          	slli	a5,a5,0x2
  10158c:	00e787b3          	add	a5,a5,a4
  101590:	00379793          	slli	a5,a5,0x3
  101594:	00078713          	mv	a4,a5
  101598:	fee44783          	lbu	a5,-18(s0)
  10159c:	00f707b3          	add	a5,a4,a5
  1015a0:	00279713          	slli	a4,a5,0x2
  1015a4:	052007b7          	lui	a5,0x5200
  1015a8:	00f707b3          	add	a5,a4,a5
  1015ac:	00700713          	li	a4,7
  1015b0:	00e7a023          	sw	a4,0(a5) # 5200000 <_etext+0x50fb7ac>
  1015b4:	fee44703          	lbu	a4,-18(s0)
  1015b8:	01700793          	li	a5,23
  1015bc:	00f70863          	beq	a4,a5,1015cc <DisplayGameName+0x598>
  1015c0:	fee44703          	lbu	a4,-18(s0)
  1015c4:	01900793          	li	a5,25
  1015c8:	04f71a63          	bne	a4,a5,10161c <DisplayGameName+0x5e8>
  1015cc:	fed44703          	lbu	a4,-19(s0)
  1015d0:	fef44783          	lbu	a5,-17(s0)
  1015d4:	04f77463          	bgeu	a4,a5,10161c <DisplayGameName+0x5e8>
  1015d8:	fef44703          	lbu	a4,-17(s0)
  1015dc:	fed44783          	lbu	a5,-19(s0)
  1015e0:	00478793          	addi	a5,a5,4
  1015e4:	02e7cc63          	blt	a5,a4,10161c <DisplayGameName+0x5e8>
  1015e8:	fef44703          	lbu	a4,-17(s0)
  1015ec:	00070793          	mv	a5,a4
  1015f0:	00279793          	slli	a5,a5,0x2
  1015f4:	00e787b3          	add	a5,a5,a4
  1015f8:	00379793          	slli	a5,a5,0x3
  1015fc:	00078713          	mv	a4,a5
  101600:	fee44783          	lbu	a5,-18(s0)
  101604:	00f707b3          	add	a5,a4,a5
  101608:	00279713          	slli	a4,a5,0x2
  10160c:	052007b7          	lui	a5,0x5200
  101610:	00f707b3          	add	a5,a4,a5
  101614:	00700713          	li	a4,7
  101618:	00e7a023          	sw	a4,0(a5) # 5200000 <_etext+0x50fb7ac>
  10161c:	fee44703          	lbu	a4,-18(s0)
  101620:	01800793          	li	a5,24
  101624:	04f71463          	bne	a4,a5,10166c <DisplayGameName+0x638>
  101628:	fef44703          	lbu	a4,-17(s0)
  10162c:	fed44783          	lbu	a5,-19(s0)
  101630:	00278793          	addi	a5,a5,2
  101634:	02f71c63          	bne	a4,a5,10166c <DisplayGameName+0x638>
  101638:	fef44703          	lbu	a4,-17(s0)
  10163c:	00070793          	mv	a5,a4
  101640:	00279793          	slli	a5,a5,0x2
  101644:	00e787b3          	add	a5,a5,a4
  101648:	00379793          	slli	a5,a5,0x3
  10164c:	00078713          	mv	a4,a5
  101650:	fee44783          	lbu	a5,-18(s0)
  101654:	00f707b3          	add	a5,a4,a5
  101658:	00279713          	slli	a4,a5,0x2
  10165c:	052007b7          	lui	a5,0x5200
  101660:	00f707b3          	add	a5,a4,a5
  101664:	00700713          	li	a4,7
  101668:	00e7a023          	sw	a4,0(a5) # 5200000 <_etext+0x50fb7ac>
  10166c:	fee44703          	lbu	a4,-18(s0)
  101670:	01800793          	li	a5,24
  101674:	04f71263          	bne	a4,a5,1016b8 <DisplayGameName+0x684>
  101678:	fef44703          	lbu	a4,-17(s0)
  10167c:	fed44783          	lbu	a5,-19(s0)
  101680:	02f71c63          	bne	a4,a5,1016b8 <DisplayGameName+0x684>
  101684:	fef44703          	lbu	a4,-17(s0)
  101688:	00070793          	mv	a5,a4
  10168c:	00279793          	slli	a5,a5,0x2
  101690:	00e787b3          	add	a5,a5,a4
  101694:	00379793          	slli	a5,a5,0x3
  101698:	00078713          	mv	a4,a5
  10169c:	fee44783          	lbu	a5,-18(s0)
  1016a0:	00f707b3          	add	a5,a4,a5
  1016a4:	00279713          	slli	a4,a5,0x2
  1016a8:	052007b7          	lui	a5,0x5200
  1016ac:	00f707b3          	add	a5,a4,a5
  1016b0:	00700713          	li	a4,7
  1016b4:	00e7a023          	sw	a4,0(a5) # 5200000 <_etext+0x50fb7ac>
  1016b8:	fee44703          	lbu	a4,-18(s0)
  1016bc:	01b00793          	li	a5,27
  1016c0:	04f71a63          	bne	a4,a5,101714 <DisplayGameName+0x6e0>
  1016c4:	fef44703          	lbu	a4,-17(s0)
  1016c8:	fed44783          	lbu	a5,-19(s0)
  1016cc:	04f76463          	bltu	a4,a5,101714 <DisplayGameName+0x6e0>
  1016d0:	fef44703          	lbu	a4,-17(s0)
  1016d4:	fed44783          	lbu	a5,-19(s0)
  1016d8:	00478793          	addi	a5,a5,4
  1016dc:	02e7cc63          	blt	a5,a4,101714 <DisplayGameName+0x6e0>
  1016e0:	fef44703          	lbu	a4,-17(s0)
  1016e4:	00070793          	mv	a5,a4
  1016e8:	00279793          	slli	a5,a5,0x2
  1016ec:	00e787b3          	add	a5,a5,a4
  1016f0:	00379793          	slli	a5,a5,0x3
  1016f4:	00078713          	mv	a4,a5
  1016f8:	fee44783          	lbu	a5,-18(s0)
  1016fc:	00f707b3          	add	a5,a4,a5
  101700:	00279713          	slli	a4,a5,0x2
  101704:	052007b7          	lui	a5,0x5200
  101708:	00f707b3          	add	a5,a4,a5
  10170c:	00700713          	li	a4,7
  101710:	00e7a023          	sw	a4,0(a5) # 5200000 <_etext+0x50fb7ac>
  101714:	fee44703          	lbu	a4,-18(s0)
  101718:	01c00793          	li	a5,28
  10171c:	04f71263          	bne	a4,a5,101760 <DisplayGameName+0x72c>
  101720:	fef44703          	lbu	a4,-17(s0)
  101724:	fed44783          	lbu	a5,-19(s0)
  101728:	02f71c63          	bne	a4,a5,101760 <DisplayGameName+0x72c>
  10172c:	fef44703          	lbu	a4,-17(s0)
  101730:	00070793          	mv	a5,a4
  101734:	00279793          	slli	a5,a5,0x2
  101738:	00e787b3          	add	a5,a5,a4
  10173c:	00379793          	slli	a5,a5,0x3
  101740:	00078713          	mv	a4,a5
  101744:	fee44783          	lbu	a5,-18(s0)
  101748:	00f707b3          	add	a5,a4,a5
  10174c:	00279713          	slli	a4,a5,0x2
  101750:	052007b7          	lui	a5,0x5200
  101754:	00f707b3          	add	a5,a4,a5
  101758:	00700713          	li	a4,7
  10175c:	00e7a023          	sw	a4,0(a5) # 5200000 <_etext+0x50fb7ac>
  101760:	fee44703          	lbu	a4,-18(s0)
  101764:	01d00793          	li	a5,29
  101768:	04f71463          	bne	a4,a5,1017b0 <DisplayGameName+0x77c>
  10176c:	fef44703          	lbu	a4,-17(s0)
  101770:	fed44783          	lbu	a5,-19(s0)
  101774:	00178793          	addi	a5,a5,1
  101778:	02f71c63          	bne	a4,a5,1017b0 <DisplayGameName+0x77c>
  10177c:	fef44703          	lbu	a4,-17(s0)
  101780:	00070793          	mv	a5,a4
  101784:	00279793          	slli	a5,a5,0x2
  101788:	00e787b3          	add	a5,a5,a4
  10178c:	00379793          	slli	a5,a5,0x3
  101790:	00078713          	mv	a4,a5
  101794:	fee44783          	lbu	a5,-18(s0)
  101798:	00f707b3          	add	a5,a4,a5
  10179c:	00279713          	slli	a4,a5,0x2
  1017a0:	052007b7          	lui	a5,0x5200
  1017a4:	00f707b3          	add	a5,a4,a5
  1017a8:	00700713          	li	a4,7
  1017ac:	00e7a023          	sw	a4,0(a5) # 5200000 <_etext+0x50fb7ac>
  1017b0:	fee44703          	lbu	a4,-18(s0)
  1017b4:	01c00793          	li	a5,28
  1017b8:	04f71463          	bne	a4,a5,101800 <DisplayGameName+0x7cc>
  1017bc:	fef44703          	lbu	a4,-17(s0)
  1017c0:	fed44783          	lbu	a5,-19(s0)
  1017c4:	00278793          	addi	a5,a5,2
  1017c8:	02f71c63          	bne	a4,a5,101800 <DisplayGameName+0x7cc>
  1017cc:	fef44703          	lbu	a4,-17(s0)
  1017d0:	00070793          	mv	a5,a4
  1017d4:	00279793          	slli	a5,a5,0x2
  1017d8:	00e787b3          	add	a5,a5,a4
  1017dc:	00379793          	slli	a5,a5,0x3
  1017e0:	00078713          	mv	a4,a5
  1017e4:	fee44783          	lbu	a5,-18(s0)
  1017e8:	00f707b3          	add	a5,a4,a5
  1017ec:	00279713          	slli	a4,a5,0x2
  1017f0:	052007b7          	lui	a5,0x5200
  1017f4:	00f707b3          	add	a5,a4,a5
  1017f8:	00700713          	li	a4,7
  1017fc:	00e7a023          	sw	a4,0(a5) # 5200000 <_etext+0x50fb7ac>
  101800:	fee44703          	lbu	a4,-18(s0)
  101804:	01d00793          	li	a5,29
  101808:	04f71c63          	bne	a4,a5,101860 <DisplayGameName+0x82c>
  10180c:	fef44703          	lbu	a4,-17(s0)
  101810:	fed44783          	lbu	a5,-19(s0)
  101814:	00378793          	addi	a5,a5,3
  101818:	00f70a63          	beq	a4,a5,10182c <DisplayGameName+0x7f8>
  10181c:	fef44703          	lbu	a4,-17(s0)
  101820:	fed44783          	lbu	a5,-19(s0)
  101824:	00478793          	addi	a5,a5,4
  101828:	02f71c63          	bne	a4,a5,101860 <DisplayGameName+0x82c>
  10182c:	fef44703          	lbu	a4,-17(s0)
  101830:	00070793          	mv	a5,a4
  101834:	00279793          	slli	a5,a5,0x2
  101838:	00e787b3          	add	a5,a5,a4
  10183c:	00379793          	slli	a5,a5,0x3
  101840:	00078713          	mv	a4,a5
  101844:	fee44783          	lbu	a5,-18(s0)
  101848:	00f707b3          	add	a5,a4,a5
  10184c:	00279713          	slli	a4,a5,0x2
  101850:	052007b7          	lui	a5,0x5200
  101854:	00f707b3          	add	a5,a4,a5
  101858:	00700713          	li	a4,7
  10185c:	00e7a023          	sw	a4,0(a5) # 5200000 <_etext+0x50fb7ac>
  101860:	fee44703          	lbu	a4,-18(s0)
  101864:	01f00793          	li	a5,31
  101868:	00f70863          	beq	a4,a5,101878 <DisplayGameName+0x844>
  10186c:	fee44703          	lbu	a4,-18(s0)
  101870:	02100793          	li	a5,33
  101874:	04f71a63          	bne	a4,a5,1018c8 <DisplayGameName+0x894>
  101878:	fed44703          	lbu	a4,-19(s0)
  10187c:	fef44783          	lbu	a5,-17(s0)
  101880:	04f77463          	bgeu	a4,a5,1018c8 <DisplayGameName+0x894>
  101884:	fef44703          	lbu	a4,-17(s0)
  101888:	fed44783          	lbu	a5,-19(s0)
  10188c:	00478793          	addi	a5,a5,4
  101890:	02e7cc63          	blt	a5,a4,1018c8 <DisplayGameName+0x894>
  101894:	fef44703          	lbu	a4,-17(s0)
  101898:	00070793          	mv	a5,a4
  10189c:	00279793          	slli	a5,a5,0x2
  1018a0:	00e787b3          	add	a5,a5,a4
  1018a4:	00379793          	slli	a5,a5,0x3
  1018a8:	00078713          	mv	a4,a5
  1018ac:	fee44783          	lbu	a5,-18(s0)
  1018b0:	00f707b3          	add	a5,a4,a5
  1018b4:	00279713          	slli	a4,a5,0x2
  1018b8:	052007b7          	lui	a5,0x5200
  1018bc:	00f707b3          	add	a5,a4,a5
  1018c0:	00700713          	li	a4,7
  1018c4:	00e7a023          	sw	a4,0(a5) # 5200000 <_etext+0x50fb7ac>
  1018c8:	fee44703          	lbu	a4,-18(s0)
  1018cc:	02000793          	li	a5,32
  1018d0:	04f71463          	bne	a4,a5,101918 <DisplayGameName+0x8e4>
  1018d4:	fef44703          	lbu	a4,-17(s0)
  1018d8:	fed44783          	lbu	a5,-19(s0)
  1018dc:	00278793          	addi	a5,a5,2
  1018e0:	02f71c63          	bne	a4,a5,101918 <DisplayGameName+0x8e4>
  1018e4:	fef44703          	lbu	a4,-17(s0)
  1018e8:	00070793          	mv	a5,a4
  1018ec:	00279793          	slli	a5,a5,0x2
  1018f0:	00e787b3          	add	a5,a5,a4
  1018f4:	00379793          	slli	a5,a5,0x3
  1018f8:	00078713          	mv	a4,a5
  1018fc:	fee44783          	lbu	a5,-18(s0)
  101900:	00f707b3          	add	a5,a4,a5
  101904:	00279713          	slli	a4,a5,0x2
  101908:	052007b7          	lui	a5,0x5200
  10190c:	00f707b3          	add	a5,a4,a5
  101910:	00700713          	li	a4,7
  101914:	00e7a023          	sw	a4,0(a5) # 5200000 <_etext+0x50fb7ac>
  101918:	fee44703          	lbu	a4,-18(s0)
  10191c:	02000793          	li	a5,32
  101920:	04f71263          	bne	a4,a5,101964 <DisplayGameName+0x930>
  101924:	fef44703          	lbu	a4,-17(s0)
  101928:	fed44783          	lbu	a5,-19(s0)
  10192c:	02f71c63          	bne	a4,a5,101964 <DisplayGameName+0x930>
  101930:	fef44703          	lbu	a4,-17(s0)
  101934:	00070793          	mv	a5,a4
  101938:	00279793          	slli	a5,a5,0x2
  10193c:	00e787b3          	add	a5,a5,a4
  101940:	00379793          	slli	a5,a5,0x3
  101944:	00078713          	mv	a4,a5
  101948:	fee44783          	lbu	a5,-18(s0)
  10194c:	00f707b3          	add	a5,a4,a5
  101950:	00279713          	slli	a4,a5,0x2
  101954:	052007b7          	lui	a5,0x5200
  101958:	00f707b3          	add	a5,a4,a5
  10195c:	00700713          	li	a4,7
  101960:	00e7a023          	sw	a4,0(a5) # 5200000 <_etext+0x50fb7ac>
  101964:	fee44703          	lbu	a4,-18(s0)
  101968:	02500793          	li	a5,37
  10196c:	04f71a63          	bne	a4,a5,1019c0 <DisplayGameName+0x98c>
  101970:	fef44703          	lbu	a4,-17(s0)
  101974:	fed44783          	lbu	a5,-19(s0)
  101978:	04f76463          	bltu	a4,a5,1019c0 <DisplayGameName+0x98c>
  10197c:	fef44703          	lbu	a4,-17(s0)
  101980:	fed44783          	lbu	a5,-19(s0)
  101984:	00478793          	addi	a5,a5,4
  101988:	02e7cc63          	blt	a5,a4,1019c0 <DisplayGameName+0x98c>
  10198c:	fef44703          	lbu	a4,-17(s0)
  101990:	00070793          	mv	a5,a4
  101994:	00279793          	slli	a5,a5,0x2
  101998:	00e787b3          	add	a5,a5,a4
  10199c:	00379793          	slli	a5,a5,0x3
  1019a0:	00078713          	mv	a4,a5
  1019a4:	fee44783          	lbu	a5,-18(s0)
  1019a8:	00f707b3          	add	a5,a4,a5
  1019ac:	00279713          	slli	a4,a5,0x2
  1019b0:	052007b7          	lui	a5,0x5200
  1019b4:	00f707b3          	add	a5,a4,a5
  1019b8:	00700713          	li	a4,7
  1019bc:	00e7a023          	sw	a4,0(a5) # 5200000 <_etext+0x50fb7ac>
  1019c0:	fee44703          	lbu	a4,-18(s0)
  1019c4:	02300793          	li	a5,35
  1019c8:	00f70863          	beq	a4,a5,1019d8 <DisplayGameName+0x9a4>
  1019cc:	fee44703          	lbu	a4,-18(s0)
  1019d0:	02400793          	li	a5,36
  1019d4:	04f71463          	bne	a4,a5,101a1c <DisplayGameName+0x9e8>
  1019d8:	fef44703          	lbu	a4,-17(s0)
  1019dc:	fed44783          	lbu	a5,-19(s0)
  1019e0:	00478793          	addi	a5,a5,4
  1019e4:	02f71c63          	bne	a4,a5,101a1c <DisplayGameName+0x9e8>
  1019e8:	fef44703          	lbu	a4,-17(s0)
  1019ec:	00070793          	mv	a5,a4
  1019f0:	00279793          	slli	a5,a5,0x2
  1019f4:	00e787b3          	add	a5,a5,a4
  1019f8:	00379793          	slli	a5,a5,0x3
  1019fc:	00078713          	mv	a4,a5
  101a00:	fee44783          	lbu	a5,-18(s0)
  101a04:	00f707b3          	add	a5,a4,a5
  101a08:	00279713          	slli	a4,a5,0x2
  101a0c:	052007b7          	lui	a5,0x5200
  101a10:	00f707b3          	add	a5,a4,a5
  101a14:	00700713          	li	a4,7
  101a18:	00e7a023          	sw	a4,0(a5) # 5200000 <_etext+0x50fb7ac>
  101a1c:	fee44703          	lbu	a4,-18(s0)
  101a20:	02300793          	li	a5,35
  101a24:	04f71463          	bne	a4,a5,101a6c <DisplayGameName+0xa38>
  101a28:	fef44703          	lbu	a4,-17(s0)
  101a2c:	fed44783          	lbu	a5,-19(s0)
  101a30:	00378793          	addi	a5,a5,3
  101a34:	02f71c63          	bne	a4,a5,101a6c <DisplayGameName+0xa38>
  101a38:	fef44703          	lbu	a4,-17(s0)
  101a3c:	00070793          	mv	a5,a4
  101a40:	00279793          	slli	a5,a5,0x2
  101a44:	00e787b3          	add	a5,a5,a4
  101a48:	00379793          	slli	a5,a5,0x3
  101a4c:	00078713          	mv	a4,a5
  101a50:	fee44783          	lbu	a5,-18(s0)
  101a54:	00f707b3          	add	a5,a4,a5
  101a58:	00279713          	slli	a4,a5,0x2
  101a5c:	052007b7          	lui	a5,0x5200
  101a60:	00f707b3          	add	a5,a4,a5
  101a64:	00700713          	li	a4,7
  101a68:	00e7a023          	sw	a4,0(a5) # 5200000 <_etext+0x50fb7ac>
  101a6c:	fee44783          	lbu	a5,-18(s0)
  101a70:	00178793          	addi	a5,a5,1
  101a74:	fef40723          	sb	a5,-18(s0)
  101a78:	fee44703          	lbu	a4,-18(s0)
  101a7c:	02700793          	li	a5,39
  101a80:	dce7fc63          	bgeu	a5,a4,101058 <DisplayGameName+0x24>
  101a84:	fef44783          	lbu	a5,-17(s0)
  101a88:	00178793          	addi	a5,a5,1
  101a8c:	fef407a3          	sb	a5,-17(s0)
  101a90:	fef44703          	lbu	a4,-17(s0)
  101a94:	01d00793          	li	a5,29
  101a98:	dae7fc63          	bgeu	a5,a4,101050 <DisplayGameName+0x1c>
  101a9c:	00000013          	nop
  101aa0:	00000013          	nop
  101aa4:	01c12403          	lw	s0,28(sp)
  101aa8:	02010113          	addi	sp,sp,32
  101aac:	00008067          	ret

00101ab0 <DisplayHeart>:
  101ab0:	fd010113          	addi	sp,sp,-48
  101ab4:	02812623          	sw	s0,44(sp)
  101ab8:	03010413          	addi	s0,sp,48
  101abc:	fca42e23          	sw	a0,-36(s0)
  101ac0:	fcb42c23          	sw	a1,-40(s0)
  101ac4:	fcc42a23          	sw	a2,-44(s0)
  101ac8:	fe042623          	sw	zero,-20(s0)
  101acc:	6a80006f          	j	102174 <DisplayHeart+0x6c4>
  101ad0:	fe042423          	sw	zero,-24(s0)
  101ad4:	6880006f          	j	10215c <DisplayHeart+0x6ac>
  101ad8:	fdc42783          	lw	a5,-36(s0)
  101adc:	00278793          	addi	a5,a5,2
  101ae0:	fe842703          	lw	a4,-24(s0)
  101ae4:	02f70a63          	beq	a4,a5,101b18 <DisplayHeart+0x68>
  101ae8:	fdc42783          	lw	a5,-36(s0)
  101aec:	00378793          	addi	a5,a5,3
  101af0:	fe842703          	lw	a4,-24(s0)
  101af4:	02f70263          	beq	a4,a5,101b18 <DisplayHeart+0x68>
  101af8:	fdc42783          	lw	a5,-36(s0)
  101afc:	00778793          	addi	a5,a5,7
  101b00:	fe842703          	lw	a4,-24(s0)
  101b04:	00f70a63          	beq	a4,a5,101b18 <DisplayHeart+0x68>
  101b08:	fdc42783          	lw	a5,-36(s0)
  101b0c:	00878793          	addi	a5,a5,8
  101b10:	fe842703          	lw	a4,-24(s0)
  101b14:	04f71063          	bne	a4,a5,101b54 <DisplayHeart+0xa4>
  101b18:	fec42703          	lw	a4,-20(s0)
  101b1c:	fd842783          	lw	a5,-40(s0)
  101b20:	02f71a63          	bne	a4,a5,101b54 <DisplayHeart+0xa4>
  101b24:	fec42703          	lw	a4,-20(s0)
  101b28:	00070793          	mv	a5,a4
  101b2c:	00279793          	slli	a5,a5,0x2
  101b30:	00e787b3          	add	a5,a5,a4
  101b34:	00379793          	slli	a5,a5,0x3
  101b38:	00078713          	mv	a4,a5
  101b3c:	fe842783          	lw	a5,-24(s0)
  101b40:	00f707b3          	add	a5,a4,a5
  101b44:	00279713          	slli	a4,a5,0x2
  101b48:	052007b7          	lui	a5,0x5200
  101b4c:	00f707b3          	add	a5,a4,a5
  101b50:	0007a023          	sw	zero,0(a5) # 5200000 <_etext+0x50fb7ac>
  101b54:	fdc42783          	lw	a5,-36(s0)
  101b58:	00178793          	addi	a5,a5,1
  101b5c:	fe842703          	lw	a4,-24(s0)
  101b60:	02f70a63          	beq	a4,a5,101b94 <DisplayHeart+0xe4>
  101b64:	fdc42783          	lw	a5,-36(s0)
  101b68:	00478793          	addi	a5,a5,4
  101b6c:	fe842703          	lw	a4,-24(s0)
  101b70:	02f70263          	beq	a4,a5,101b94 <DisplayHeart+0xe4>
  101b74:	fdc42783          	lw	a5,-36(s0)
  101b78:	00678793          	addi	a5,a5,6
  101b7c:	fe842703          	lw	a4,-24(s0)
  101b80:	00f70a63          	beq	a4,a5,101b94 <DisplayHeart+0xe4>
  101b84:	fdc42783          	lw	a5,-36(s0)
  101b88:	00978793          	addi	a5,a5,9
  101b8c:	fe842703          	lw	a4,-24(s0)
  101b90:	04f71263          	bne	a4,a5,101bd4 <DisplayHeart+0x124>
  101b94:	fd842783          	lw	a5,-40(s0)
  101b98:	00178793          	addi	a5,a5,1
  101b9c:	fec42703          	lw	a4,-20(s0)
  101ba0:	02f71a63          	bne	a4,a5,101bd4 <DisplayHeart+0x124>
  101ba4:	fec42703          	lw	a4,-20(s0)
  101ba8:	00070793          	mv	a5,a4
  101bac:	00279793          	slli	a5,a5,0x2
  101bb0:	00e787b3          	add	a5,a5,a4
  101bb4:	00379793          	slli	a5,a5,0x3
  101bb8:	00078713          	mv	a4,a5
  101bbc:	fe842783          	lw	a5,-24(s0)
  101bc0:	00f707b3          	add	a5,a4,a5
  101bc4:	00279713          	slli	a4,a5,0x2
  101bc8:	052007b7          	lui	a5,0x5200
  101bcc:	00f707b3          	add	a5,a4,a5
  101bd0:	0007a023          	sw	zero,0(a5) # 5200000 <_etext+0x50fb7ac>
  101bd4:	fe842703          	lw	a4,-24(s0)
  101bd8:	fdc42783          	lw	a5,-36(s0)
  101bdc:	02f70263          	beq	a4,a5,101c00 <DisplayHeart+0x150>
  101be0:	fdc42783          	lw	a5,-36(s0)
  101be4:	00578793          	addi	a5,a5,5
  101be8:	fe842703          	lw	a4,-24(s0)
  101bec:	00f70a63          	beq	a4,a5,101c00 <DisplayHeart+0x150>
  101bf0:	fdc42783          	lw	a5,-36(s0)
  101bf4:	00a78793          	addi	a5,a5,10
  101bf8:	fe842703          	lw	a4,-24(s0)
  101bfc:	04f71263          	bne	a4,a5,101c40 <DisplayHeart+0x190>
  101c00:	fd842783          	lw	a5,-40(s0)
  101c04:	00278793          	addi	a5,a5,2
  101c08:	fec42703          	lw	a4,-20(s0)
  101c0c:	02f71a63          	bne	a4,a5,101c40 <DisplayHeart+0x190>
  101c10:	fec42703          	lw	a4,-20(s0)
  101c14:	00070793          	mv	a5,a4
  101c18:	00279793          	slli	a5,a5,0x2
  101c1c:	00e787b3          	add	a5,a5,a4
  101c20:	00379793          	slli	a5,a5,0x3
  101c24:	00078713          	mv	a4,a5
  101c28:	fe842783          	lw	a5,-24(s0)
  101c2c:	00f707b3          	add	a5,a4,a5
  101c30:	00279713          	slli	a4,a5,0x2
  101c34:	052007b7          	lui	a5,0x5200
  101c38:	00f707b3          	add	a5,a4,a5
  101c3c:	0007a023          	sw	zero,0(a5) # 5200000 <_etext+0x50fb7ac>
  101c40:	fe842703          	lw	a4,-24(s0)
  101c44:	fdc42783          	lw	a5,-36(s0)
  101c48:	00f70a63          	beq	a4,a5,101c5c <DisplayHeart+0x1ac>
  101c4c:	fdc42783          	lw	a5,-36(s0)
  101c50:	00a78793          	addi	a5,a5,10
  101c54:	fe842703          	lw	a4,-24(s0)
  101c58:	04f71263          	bne	a4,a5,101c9c <DisplayHeart+0x1ec>
  101c5c:	fd842783          	lw	a5,-40(s0)
  101c60:	00378793          	addi	a5,a5,3
  101c64:	fec42703          	lw	a4,-20(s0)
  101c68:	02f71a63          	bne	a4,a5,101c9c <DisplayHeart+0x1ec>
  101c6c:	fec42703          	lw	a4,-20(s0)
  101c70:	00070793          	mv	a5,a4
  101c74:	00279793          	slli	a5,a5,0x2
  101c78:	00e787b3          	add	a5,a5,a4
  101c7c:	00379793          	slli	a5,a5,0x3
  101c80:	00078713          	mv	a4,a5
  101c84:	fe842783          	lw	a5,-24(s0)
  101c88:	00f707b3          	add	a5,a4,a5
  101c8c:	00279713          	slli	a4,a5,0x2
  101c90:	052007b7          	lui	a5,0x5200
  101c94:	00f707b3          	add	a5,a4,a5
  101c98:	0007a023          	sw	zero,0(a5) # 5200000 <_etext+0x50fb7ac>
  101c9c:	fdc42783          	lw	a5,-36(s0)
  101ca0:	00178793          	addi	a5,a5,1
  101ca4:	fe842703          	lw	a4,-24(s0)
  101ca8:	00f70a63          	beq	a4,a5,101cbc <DisplayHeart+0x20c>
  101cac:	fdc42783          	lw	a5,-36(s0)
  101cb0:	00978793          	addi	a5,a5,9
  101cb4:	fe842703          	lw	a4,-24(s0)
  101cb8:	04f71263          	bne	a4,a5,101cfc <DisplayHeart+0x24c>
  101cbc:	fd842783          	lw	a5,-40(s0)
  101cc0:	00478793          	addi	a5,a5,4
  101cc4:	fec42703          	lw	a4,-20(s0)
  101cc8:	02f71a63          	bne	a4,a5,101cfc <DisplayHeart+0x24c>
  101ccc:	fec42703          	lw	a4,-20(s0)
  101cd0:	00070793          	mv	a5,a4
  101cd4:	00279793          	slli	a5,a5,0x2
  101cd8:	00e787b3          	add	a5,a5,a4
  101cdc:	00379793          	slli	a5,a5,0x3
  101ce0:	00078713          	mv	a4,a5
  101ce4:	fe842783          	lw	a5,-24(s0)
  101ce8:	00f707b3          	add	a5,a4,a5
  101cec:	00279713          	slli	a4,a5,0x2
  101cf0:	052007b7          	lui	a5,0x5200
  101cf4:	00f707b3          	add	a5,a4,a5
  101cf8:	0007a023          	sw	zero,0(a5) # 5200000 <_etext+0x50fb7ac>
  101cfc:	fdc42783          	lw	a5,-36(s0)
  101d00:	00278793          	addi	a5,a5,2
  101d04:	fe842703          	lw	a4,-24(s0)
  101d08:	00f70a63          	beq	a4,a5,101d1c <DisplayHeart+0x26c>
  101d0c:	fdc42783          	lw	a5,-36(s0)
  101d10:	00878793          	addi	a5,a5,8
  101d14:	fe842703          	lw	a4,-24(s0)
  101d18:	04f71263          	bne	a4,a5,101d5c <DisplayHeart+0x2ac>
  101d1c:	fd842783          	lw	a5,-40(s0)
  101d20:	00578793          	addi	a5,a5,5
  101d24:	fec42703          	lw	a4,-20(s0)
  101d28:	02f71a63          	bne	a4,a5,101d5c <DisplayHeart+0x2ac>
  101d2c:	fec42703          	lw	a4,-20(s0)
  101d30:	00070793          	mv	a5,a4
  101d34:	00279793          	slli	a5,a5,0x2
  101d38:	00e787b3          	add	a5,a5,a4
  101d3c:	00379793          	slli	a5,a5,0x3
  101d40:	00078713          	mv	a4,a5
  101d44:	fe842783          	lw	a5,-24(s0)
  101d48:	00f707b3          	add	a5,a4,a5
  101d4c:	00279713          	slli	a4,a5,0x2
  101d50:	052007b7          	lui	a5,0x5200
  101d54:	00f707b3          	add	a5,a4,a5
  101d58:	0007a023          	sw	zero,0(a5) # 5200000 <_etext+0x50fb7ac>
  101d5c:	fdc42783          	lw	a5,-36(s0)
  101d60:	00378793          	addi	a5,a5,3
  101d64:	fe842703          	lw	a4,-24(s0)
  101d68:	00f70a63          	beq	a4,a5,101d7c <DisplayHeart+0x2cc>
  101d6c:	fdc42783          	lw	a5,-36(s0)
  101d70:	00778793          	addi	a5,a5,7
  101d74:	fe842703          	lw	a4,-24(s0)
  101d78:	04f71263          	bne	a4,a5,101dbc <DisplayHeart+0x30c>
  101d7c:	fd842783          	lw	a5,-40(s0)
  101d80:	00678793          	addi	a5,a5,6
  101d84:	fec42703          	lw	a4,-20(s0)
  101d88:	02f71a63          	bne	a4,a5,101dbc <DisplayHeart+0x30c>
  101d8c:	fec42703          	lw	a4,-20(s0)
  101d90:	00070793          	mv	a5,a4
  101d94:	00279793          	slli	a5,a5,0x2
  101d98:	00e787b3          	add	a5,a5,a4
  101d9c:	00379793          	slli	a5,a5,0x3
  101da0:	00078713          	mv	a4,a5
  101da4:	fe842783          	lw	a5,-24(s0)
  101da8:	00f707b3          	add	a5,a4,a5
  101dac:	00279713          	slli	a4,a5,0x2
  101db0:	052007b7          	lui	a5,0x5200
  101db4:	00f707b3          	add	a5,a4,a5
  101db8:	0007a023          	sw	zero,0(a5) # 5200000 <_etext+0x50fb7ac>
  101dbc:	fdc42783          	lw	a5,-36(s0)
  101dc0:	00478793          	addi	a5,a5,4
  101dc4:	fe842703          	lw	a4,-24(s0)
  101dc8:	00f70a63          	beq	a4,a5,101ddc <DisplayHeart+0x32c>
  101dcc:	fdc42783          	lw	a5,-36(s0)
  101dd0:	00678793          	addi	a5,a5,6
  101dd4:	fe842703          	lw	a4,-24(s0)
  101dd8:	04f71263          	bne	a4,a5,101e1c <DisplayHeart+0x36c>
  101ddc:	fd842783          	lw	a5,-40(s0)
  101de0:	00778793          	addi	a5,a5,7
  101de4:	fec42703          	lw	a4,-20(s0)
  101de8:	02f71a63          	bne	a4,a5,101e1c <DisplayHeart+0x36c>
  101dec:	fec42703          	lw	a4,-20(s0)
  101df0:	00070793          	mv	a5,a4
  101df4:	00279793          	slli	a5,a5,0x2
  101df8:	00e787b3          	add	a5,a5,a4
  101dfc:	00379793          	slli	a5,a5,0x3
  101e00:	00078713          	mv	a4,a5
  101e04:	fe842783          	lw	a5,-24(s0)
  101e08:	00f707b3          	add	a5,a4,a5
  101e0c:	00279713          	slli	a4,a5,0x2
  101e10:	052007b7          	lui	a5,0x5200
  101e14:	00f707b3          	add	a5,a4,a5
  101e18:	0007a023          	sw	zero,0(a5) # 5200000 <_etext+0x50fb7ac>
  101e1c:	fdc42783          	lw	a5,-36(s0)
  101e20:	00578793          	addi	a5,a5,5
  101e24:	fe842703          	lw	a4,-24(s0)
  101e28:	04f71263          	bne	a4,a5,101e6c <DisplayHeart+0x3bc>
  101e2c:	fd842783          	lw	a5,-40(s0)
  101e30:	00878793          	addi	a5,a5,8
  101e34:	fec42703          	lw	a4,-20(s0)
  101e38:	02f71a63          	bne	a4,a5,101e6c <DisplayHeart+0x3bc>
  101e3c:	fec42703          	lw	a4,-20(s0)
  101e40:	00070793          	mv	a5,a4
  101e44:	00279793          	slli	a5,a5,0x2
  101e48:	00e787b3          	add	a5,a5,a4
  101e4c:	00379793          	slli	a5,a5,0x3
  101e50:	00078713          	mv	a4,a5
  101e54:	fe842783          	lw	a5,-24(s0)
  101e58:	00f707b3          	add	a5,a4,a5
  101e5c:	00279713          	slli	a4,a5,0x2
  101e60:	052007b7          	lui	a5,0x5200
  101e64:	00f707b3          	add	a5,a4,a5
  101e68:	0007a023          	sw	zero,0(a5) # 5200000 <_etext+0x50fb7ac>
  101e6c:	fdc42783          	lw	a5,-36(s0)
  101e70:	00278793          	addi	a5,a5,2
  101e74:	fe842703          	lw	a4,-24(s0)
  101e78:	02f70a63          	beq	a4,a5,101eac <DisplayHeart+0x3fc>
  101e7c:	fdc42783          	lw	a5,-36(s0)
  101e80:	00378793          	addi	a5,a5,3
  101e84:	fe842703          	lw	a4,-24(s0)
  101e88:	02f70263          	beq	a4,a5,101eac <DisplayHeart+0x3fc>
  101e8c:	fdc42783          	lw	a5,-36(s0)
  101e90:	00778793          	addi	a5,a5,7
  101e94:	fe842703          	lw	a4,-24(s0)
  101e98:	00f70a63          	beq	a4,a5,101eac <DisplayHeart+0x3fc>
  101e9c:	fdc42783          	lw	a5,-36(s0)
  101ea0:	00878793          	addi	a5,a5,8
  101ea4:	fe842703          	lw	a4,-24(s0)
  101ea8:	04f71463          	bne	a4,a5,101ef0 <DisplayHeart+0x440>
  101eac:	fd842783          	lw	a5,-40(s0)
  101eb0:	00178793          	addi	a5,a5,1
  101eb4:	fec42703          	lw	a4,-20(s0)
  101eb8:	02f71c63          	bne	a4,a5,101ef0 <DisplayHeart+0x440>
  101ebc:	fec42703          	lw	a4,-20(s0)
  101ec0:	00070793          	mv	a5,a4
  101ec4:	00279793          	slli	a5,a5,0x2
  101ec8:	00e787b3          	add	a5,a5,a4
  101ecc:	00379793          	slli	a5,a5,0x3
  101ed0:	00078713          	mv	a4,a5
  101ed4:	fe842783          	lw	a5,-24(s0)
  101ed8:	00f707b3          	add	a5,a4,a5
  101edc:	00279713          	slli	a4,a5,0x2
  101ee0:	052007b7          	lui	a5,0x5200
  101ee4:	00f707b3          	add	a5,a4,a5
  101ee8:	fd442703          	lw	a4,-44(s0)
  101eec:	00e7a023          	sw	a4,0(a5) # 5200000 <_etext+0x50fb7ac>
  101ef0:	fdc42703          	lw	a4,-36(s0)
  101ef4:	fe842783          	lw	a5,-24(s0)
  101ef8:	00f75a63          	bge	a4,a5,101f0c <DisplayHeart+0x45c>
  101efc:	fdc42783          	lw	a5,-36(s0)
  101f00:	00478793          	addi	a5,a5,4
  101f04:	fe842703          	lw	a4,-24(s0)
  101f08:	02e7d263          	bge	a5,a4,101f2c <DisplayHeart+0x47c>
  101f0c:	fdc42783          	lw	a5,-36(s0)
  101f10:	00578793          	addi	a5,a5,5
  101f14:	fe842703          	lw	a4,-24(s0)
  101f18:	04e7dc63          	bge	a5,a4,101f70 <DisplayHeart+0x4c0>
  101f1c:	fdc42783          	lw	a5,-36(s0)
  101f20:	00978793          	addi	a5,a5,9
  101f24:	fe842703          	lw	a4,-24(s0)
  101f28:	04e7c463          	blt	a5,a4,101f70 <DisplayHeart+0x4c0>
  101f2c:	fd842783          	lw	a5,-40(s0)
  101f30:	00278793          	addi	a5,a5,2
  101f34:	fec42703          	lw	a4,-20(s0)
  101f38:	02f71c63          	bne	a4,a5,101f70 <DisplayHeart+0x4c0>
  101f3c:	fec42703          	lw	a4,-20(s0)
  101f40:	00070793          	mv	a5,a4
  101f44:	00279793          	slli	a5,a5,0x2
  101f48:	00e787b3          	add	a5,a5,a4
  101f4c:	00379793          	slli	a5,a5,0x3
  101f50:	00078713          	mv	a4,a5
  101f54:	fe842783          	lw	a5,-24(s0)
  101f58:	00f707b3          	add	a5,a4,a5
  101f5c:	00279713          	slli	a4,a5,0x2
  101f60:	052007b7          	lui	a5,0x5200
  101f64:	00f707b3          	add	a5,a4,a5
  101f68:	fd442703          	lw	a4,-44(s0)
  101f6c:	00e7a023          	sw	a4,0(a5) # 5200000 <_etext+0x50fb7ac>
  101f70:	fdc42703          	lw	a4,-36(s0)
  101f74:	fe842783          	lw	a5,-24(s0)
  101f78:	04f75c63          	bge	a4,a5,101fd0 <DisplayHeart+0x520>
  101f7c:	fdc42783          	lw	a5,-36(s0)
  101f80:	00978793          	addi	a5,a5,9
  101f84:	fe842703          	lw	a4,-24(s0)
  101f88:	04e7c463          	blt	a5,a4,101fd0 <DisplayHeart+0x520>
  101f8c:	fd842783          	lw	a5,-40(s0)
  101f90:	00378793          	addi	a5,a5,3
  101f94:	fec42703          	lw	a4,-20(s0)
  101f98:	02f71c63          	bne	a4,a5,101fd0 <DisplayHeart+0x520>
  101f9c:	fec42703          	lw	a4,-20(s0)
  101fa0:	00070793          	mv	a5,a4
  101fa4:	00279793          	slli	a5,a5,0x2
  101fa8:	00e787b3          	add	a5,a5,a4
  101fac:	00379793          	slli	a5,a5,0x3
  101fb0:	00078713          	mv	a4,a5
  101fb4:	fe842783          	lw	a5,-24(s0)
  101fb8:	00f707b3          	add	a5,a4,a5
  101fbc:	00279713          	slli	a4,a5,0x2
  101fc0:	052007b7          	lui	a5,0x5200
  101fc4:	00f707b3          	add	a5,a4,a5
  101fc8:	fd442703          	lw	a4,-44(s0)
  101fcc:	00e7a023          	sw	a4,0(a5) # 5200000 <_etext+0x50fb7ac>
  101fd0:	fdc42783          	lw	a5,-36(s0)
  101fd4:	00178793          	addi	a5,a5,1
  101fd8:	fe842703          	lw	a4,-24(s0)
  101fdc:	04e7dc63          	bge	a5,a4,102034 <DisplayHeart+0x584>
  101fe0:	fdc42783          	lw	a5,-36(s0)
  101fe4:	00878793          	addi	a5,a5,8
  101fe8:	fe842703          	lw	a4,-24(s0)
  101fec:	04e7c463          	blt	a5,a4,102034 <DisplayHeart+0x584>
  101ff0:	fd842783          	lw	a5,-40(s0)
  101ff4:	00478793          	addi	a5,a5,4
  101ff8:	fec42703          	lw	a4,-20(s0)
  101ffc:	02f71c63          	bne	a4,a5,102034 <DisplayHeart+0x584>
  102000:	fec42703          	lw	a4,-20(s0)
  102004:	00070793          	mv	a5,a4
  102008:	00279793          	slli	a5,a5,0x2
  10200c:	00e787b3          	add	a5,a5,a4
  102010:	00379793          	slli	a5,a5,0x3
  102014:	00078713          	mv	a4,a5
  102018:	fe842783          	lw	a5,-24(s0)
  10201c:	00f707b3          	add	a5,a4,a5
  102020:	00279713          	slli	a4,a5,0x2
  102024:	052007b7          	lui	a5,0x5200
  102028:	00f707b3          	add	a5,a4,a5
  10202c:	fd442703          	lw	a4,-44(s0)
  102030:	00e7a023          	sw	a4,0(a5) # 5200000 <_etext+0x50fb7ac>
  102034:	fdc42783          	lw	a5,-36(s0)
  102038:	00278793          	addi	a5,a5,2
  10203c:	fe842703          	lw	a4,-24(s0)
  102040:	04e7dc63          	bge	a5,a4,102098 <DisplayHeart+0x5e8>
  102044:	fdc42783          	lw	a5,-36(s0)
  102048:	00778793          	addi	a5,a5,7
  10204c:	fe842703          	lw	a4,-24(s0)
  102050:	04e7c463          	blt	a5,a4,102098 <DisplayHeart+0x5e8>
  102054:	fd842783          	lw	a5,-40(s0)
  102058:	00578793          	addi	a5,a5,5
  10205c:	fec42703          	lw	a4,-20(s0)
  102060:	02f71c63          	bne	a4,a5,102098 <DisplayHeart+0x5e8>
  102064:	fec42703          	lw	a4,-20(s0)
  102068:	00070793          	mv	a5,a4
  10206c:	00279793          	slli	a5,a5,0x2
  102070:	00e787b3          	add	a5,a5,a4
  102074:	00379793          	slli	a5,a5,0x3
  102078:	00078713          	mv	a4,a5
  10207c:	fe842783          	lw	a5,-24(s0)
  102080:	00f707b3          	add	a5,a4,a5
  102084:	00279713          	slli	a4,a5,0x2
  102088:	052007b7          	lui	a5,0x5200
  10208c:	00f707b3          	add	a5,a4,a5
  102090:	fd442703          	lw	a4,-44(s0)
  102094:	00e7a023          	sw	a4,0(a5) # 5200000 <_etext+0x50fb7ac>
  102098:	fdc42783          	lw	a5,-36(s0)
  10209c:	00378793          	addi	a5,a5,3
  1020a0:	fe842703          	lw	a4,-24(s0)
  1020a4:	04e7dc63          	bge	a5,a4,1020fc <DisplayHeart+0x64c>
  1020a8:	fdc42783          	lw	a5,-36(s0)
  1020ac:	00678793          	addi	a5,a5,6
  1020b0:	fe842703          	lw	a4,-24(s0)
  1020b4:	04e7c463          	blt	a5,a4,1020fc <DisplayHeart+0x64c>
  1020b8:	fd842783          	lw	a5,-40(s0)
  1020bc:	00678793          	addi	a5,a5,6
  1020c0:	fec42703          	lw	a4,-20(s0)
  1020c4:	02f71c63          	bne	a4,a5,1020fc <DisplayHeart+0x64c>
  1020c8:	fec42703          	lw	a4,-20(s0)
  1020cc:	00070793          	mv	a5,a4
  1020d0:	00279793          	slli	a5,a5,0x2
  1020d4:	00e787b3          	add	a5,a5,a4
  1020d8:	00379793          	slli	a5,a5,0x3
  1020dc:	00078713          	mv	a4,a5
  1020e0:	fe842783          	lw	a5,-24(s0)
  1020e4:	00f707b3          	add	a5,a4,a5
  1020e8:	00279713          	slli	a4,a5,0x2
  1020ec:	052007b7          	lui	a5,0x5200
  1020f0:	00f707b3          	add	a5,a4,a5
  1020f4:	fd442703          	lw	a4,-44(s0)
  1020f8:	00e7a023          	sw	a4,0(a5) # 5200000 <_etext+0x50fb7ac>
  1020fc:	fdc42783          	lw	a5,-36(s0)
  102100:	00578793          	addi	a5,a5,5
  102104:	fe842703          	lw	a4,-24(s0)
  102108:	04f71463          	bne	a4,a5,102150 <DisplayHeart+0x6a0>
  10210c:	fd842783          	lw	a5,-40(s0)
  102110:	00778793          	addi	a5,a5,7
  102114:	fec42703          	lw	a4,-20(s0)
  102118:	02f71c63          	bne	a4,a5,102150 <DisplayHeart+0x6a0>
  10211c:	fec42703          	lw	a4,-20(s0)
  102120:	00070793          	mv	a5,a4
  102124:	00279793          	slli	a5,a5,0x2
  102128:	00e787b3          	add	a5,a5,a4
  10212c:	00379793          	slli	a5,a5,0x3
  102130:	00078713          	mv	a4,a5
  102134:	fe842783          	lw	a5,-24(s0)
  102138:	00f707b3          	add	a5,a4,a5
  10213c:	00279713          	slli	a4,a5,0x2
  102140:	052007b7          	lui	a5,0x5200
  102144:	00f707b3          	add	a5,a4,a5
  102148:	fd442703          	lw	a4,-44(s0)
  10214c:	00e7a023          	sw	a4,0(a5) # 5200000 <_etext+0x50fb7ac>
  102150:	fe842783          	lw	a5,-24(s0)
  102154:	00178793          	addi	a5,a5,1
  102158:	fef42423          	sw	a5,-24(s0)
  10215c:	fe842703          	lw	a4,-24(s0)
  102160:	02700793          	li	a5,39
  102164:	96e7dae3          	bge	a5,a4,101ad8 <DisplayHeart+0x28>
  102168:	fec42783          	lw	a5,-20(s0)
  10216c:	00178793          	addi	a5,a5,1
  102170:	fef42623          	sw	a5,-20(s0)
  102174:	fec42703          	lw	a4,-20(s0)
  102178:	01d00793          	li	a5,29
  10217c:	94e7dae3          	bge	a5,a4,101ad0 <DisplayHeart+0x20>
  102180:	00000013          	nop
  102184:	00000013          	nop
  102188:	02c12403          	lw	s0,44(sp)
  10218c:	03010113          	addi	sp,sp,48
  102190:	00008067          	ret

00102194 <setScreenColor>:
  102194:	fd010113          	addi	sp,sp,-48
  102198:	02812623          	sw	s0,44(sp)
  10219c:	03010413          	addi	s0,sp,48
  1021a0:	fca42e23          	sw	a0,-36(s0)
  1021a4:	fe0407a3          	sb	zero,-17(s0)
  1021a8:	0640006f          	j	10220c <setScreenColor+0x78>
  1021ac:	fe040723          	sb	zero,-18(s0)
  1021b0:	0440006f          	j	1021f4 <setScreenColor+0x60>
  1021b4:	fef44703          	lbu	a4,-17(s0)
  1021b8:	00070793          	mv	a5,a4
  1021bc:	00279793          	slli	a5,a5,0x2
  1021c0:	00e787b3          	add	a5,a5,a4
  1021c4:	00379793          	slli	a5,a5,0x3
  1021c8:	00078713          	mv	a4,a5
  1021cc:	fee44783          	lbu	a5,-18(s0)
  1021d0:	00f707b3          	add	a5,a4,a5
  1021d4:	00279713          	slli	a4,a5,0x2
  1021d8:	052007b7          	lui	a5,0x5200
  1021dc:	00f707b3          	add	a5,a4,a5
  1021e0:	fdc42703          	lw	a4,-36(s0)
  1021e4:	00e7a023          	sw	a4,0(a5) # 5200000 <_etext+0x50fb7ac>
  1021e8:	fee44783          	lbu	a5,-18(s0)
  1021ec:	00178793          	addi	a5,a5,1
  1021f0:	fef40723          	sb	a5,-18(s0)
  1021f4:	fee44703          	lbu	a4,-18(s0)
  1021f8:	02700793          	li	a5,39
  1021fc:	fae7fce3          	bgeu	a5,a4,1021b4 <setScreenColor+0x20>
  102200:	fef44783          	lbu	a5,-17(s0)
  102204:	00178793          	addi	a5,a5,1
  102208:	fef407a3          	sb	a5,-17(s0)
  10220c:	fef44703          	lbu	a4,-17(s0)
  102210:	01d00793          	li	a5,29
  102214:	f8e7fce3          	bgeu	a5,a4,1021ac <setScreenColor+0x18>
  102218:	00000013          	nop
  10221c:	00000013          	nop
  102220:	02c12403          	lw	s0,44(sp)
  102224:	03010113          	addi	sp,sp,48
  102228:	00008067          	ret

0010222c <DisplayGameOverScreen>:
  10222c:	fd010113          	addi	sp,sp,-48
  102230:	02112623          	sw	ra,44(sp)
  102234:	02812423          	sw	s0,40(sp)
  102238:	03010413          	addi	s0,sp,48
  10223c:	fca42e23          	sw	a0,-36(s0)
  102240:	00100793          	li	a5,1
  102244:	fef406a3          	sb	a5,-19(s0)
  102248:	fe0407a3          	sb	zero,-17(s0)
  10224c:	7980006f          	j	1029e4 <DisplayGameOverScreen+0x7b8>
  102250:	fe040723          	sb	zero,-18(s0)
  102254:	7780006f          	j	1029cc <DisplayGameOverScreen+0x7a0>
  102258:	fef44703          	lbu	a4,-17(s0)
  10225c:	00070793          	mv	a5,a4
  102260:	00279793          	slli	a5,a5,0x2
  102264:	00e787b3          	add	a5,a5,a4
  102268:	00379793          	slli	a5,a5,0x3
  10226c:	00078713          	mv	a4,a5
  102270:	fee44783          	lbu	a5,-18(s0)
  102274:	00f707b3          	add	a5,a4,a5
  102278:	00279713          	slli	a4,a5,0x2
  10227c:	052007b7          	lui	a5,0x5200
  102280:	00f707b3          	add	a5,a4,a5
  102284:	00900713          	li	a4,9
  102288:	00e7a023          	sw	a4,0(a5) # 5200000 <_etext+0x50fb7ac>
  10228c:	fee44703          	lbu	a4,-18(s0)
  102290:	00500793          	li	a5,5
  102294:	02f71263          	bne	a4,a5,1022b8 <DisplayGameOverScreen+0x8c>
  102298:	fed44783          	lbu	a5,-19(s0)
  10229c:	00178713          	addi	a4,a5,1
  1022a0:	fef44783          	lbu	a5,-17(s0)
  1022a4:	00f75a63          	bge	a4,a5,1022b8 <DisplayGameOverScreen+0x8c>
  1022a8:	fef44703          	lbu	a4,-17(s0)
  1022ac:	fed44783          	lbu	a5,-19(s0)
  1022b0:	00578793          	addi	a5,a5,5
  1022b4:	0ae7dc63          	bge	a5,a4,10236c <DisplayGameOverScreen+0x140>
  1022b8:	fee44703          	lbu	a4,-18(s0)
  1022bc:	00600793          	li	a5,6
  1022c0:	02f71263          	bne	a4,a5,1022e4 <DisplayGameOverScreen+0xb8>
  1022c4:	fef44703          	lbu	a4,-17(s0)
  1022c8:	fed44783          	lbu	a5,-19(s0)
  1022cc:	00178793          	addi	a5,a5,1
  1022d0:	08f70e63          	beq	a4,a5,10236c <DisplayGameOverScreen+0x140>
  1022d4:	fef44703          	lbu	a4,-17(s0)
  1022d8:	fed44783          	lbu	a5,-19(s0)
  1022dc:	00678793          	addi	a5,a5,6
  1022e0:	08f70663          	beq	a4,a5,10236c <DisplayGameOverScreen+0x140>
  1022e4:	fee44703          	lbu	a4,-18(s0)
  1022e8:	00600793          	li	a5,6
  1022ec:	02e7f663          	bgeu	a5,a4,102318 <DisplayGameOverScreen+0xec>
  1022f0:	fee44703          	lbu	a4,-18(s0)
  1022f4:	00b00793          	li	a5,11
  1022f8:	02e7e063          	bltu	a5,a4,102318 <DisplayGameOverScreen+0xec>
  1022fc:	fef44703          	lbu	a4,-17(s0)
  102300:	fed44783          	lbu	a5,-19(s0)
  102304:	06f70463          	beq	a4,a5,10236c <DisplayGameOverScreen+0x140>
  102308:	fef44703          	lbu	a4,-17(s0)
  10230c:	fed44783          	lbu	a5,-19(s0)
  102310:	00778793          	addi	a5,a5,7
  102314:	04f70c63          	beq	a4,a5,10236c <DisplayGameOverScreen+0x140>
  102318:	fee44703          	lbu	a4,-18(s0)
  10231c:	00b00793          	li	a5,11
  102320:	02f71263          	bne	a4,a5,102344 <DisplayGameOverScreen+0x118>
  102324:	fed44783          	lbu	a5,-19(s0)
  102328:	00378713          	addi	a4,a5,3
  10232c:	fef44783          	lbu	a5,-17(s0)
  102330:	00f75a63          	bge	a4,a5,102344 <DisplayGameOverScreen+0x118>
  102334:	fef44703          	lbu	a4,-17(s0)
  102338:	fed44783          	lbu	a5,-19(s0)
  10233c:	00778793          	addi	a5,a5,7
  102340:	02e7d663          	bge	a5,a4,10236c <DisplayGameOverScreen+0x140>
  102344:	fee44703          	lbu	a4,-18(s0)
  102348:	00700793          	li	a5,7
  10234c:	04e7fa63          	bgeu	a5,a4,1023a0 <DisplayGameOverScreen+0x174>
  102350:	fee44703          	lbu	a4,-18(s0)
  102354:	00b00793          	li	a5,11
  102358:	04e7e463          	bltu	a5,a4,1023a0 <DisplayGameOverScreen+0x174>
  10235c:	fef44703          	lbu	a4,-17(s0)
  102360:	fed44783          	lbu	a5,-19(s0)
  102364:	00478793          	addi	a5,a5,4
  102368:	02f71c63          	bne	a4,a5,1023a0 <DisplayGameOverScreen+0x174>
  10236c:	fef44703          	lbu	a4,-17(s0)
  102370:	00070793          	mv	a5,a4
  102374:	00279793          	slli	a5,a5,0x2
  102378:	00e787b3          	add	a5,a5,a4
  10237c:	00379793          	slli	a5,a5,0x3
  102380:	00078713          	mv	a4,a5
  102384:	fee44783          	lbu	a5,-18(s0)
  102388:	00f707b3          	add	a5,a4,a5
  10238c:	00279713          	slli	a4,a5,0x2
  102390:	052007b7          	lui	a5,0x5200
  102394:	00f707b3          	add	a5,a4,a5
  102398:	00300713          	li	a4,3
  10239c:	00e7a023          	sw	a4,0(a5) # 5200000 <_etext+0x50fb7ac>
  1023a0:	fee44703          	lbu	a4,-18(s0)
  1023a4:	01000793          	li	a5,16
  1023a8:	00f71863          	bne	a4,a5,1023b8 <DisplayGameOverScreen+0x18c>
  1023ac:	fef44703          	lbu	a4,-17(s0)
  1023b0:	fed44783          	lbu	a5,-19(s0)
  1023b4:	0cf70263          	beq	a4,a5,102478 <DisplayGameOverScreen+0x24c>
  1023b8:	fee44703          	lbu	a4,-18(s0)
  1023bc:	00f00793          	li	a5,15
  1023c0:	00f70863          	beq	a4,a5,1023d0 <DisplayGameOverScreen+0x1a4>
  1023c4:	fee44703          	lbu	a4,-18(s0)
  1023c8:	01100793          	li	a5,17
  1023cc:	00f71a63          	bne	a4,a5,1023e0 <DisplayGameOverScreen+0x1b4>
  1023d0:	fef44703          	lbu	a4,-17(s0)
  1023d4:	fed44783          	lbu	a5,-19(s0)
  1023d8:	00178793          	addi	a5,a5,1
  1023dc:	08f70e63          	beq	a4,a5,102478 <DisplayGameOverScreen+0x24c>
  1023e0:	fee44703          	lbu	a4,-18(s0)
  1023e4:	00e00793          	li	a5,14
  1023e8:	00f70863          	beq	a4,a5,1023f8 <DisplayGameOverScreen+0x1cc>
  1023ec:	fee44703          	lbu	a4,-18(s0)
  1023f0:	01200793          	li	a5,18
  1023f4:	02f71263          	bne	a4,a5,102418 <DisplayGameOverScreen+0x1ec>
  1023f8:	fed44783          	lbu	a5,-19(s0)
  1023fc:	00178713          	addi	a4,a5,1
  102400:	fef44783          	lbu	a5,-17(s0)
  102404:	00f75a63          	bge	a4,a5,102418 <DisplayGameOverScreen+0x1ec>
  102408:	fef44703          	lbu	a4,-17(s0)
  10240c:	fed44783          	lbu	a5,-19(s0)
  102410:	00378793          	addi	a5,a5,3
  102414:	06e7d263          	bge	a5,a4,102478 <DisplayGameOverScreen+0x24c>
  102418:	fee44703          	lbu	a4,-18(s0)
  10241c:	00c00793          	li	a5,12
  102420:	02e7f063          	bgeu	a5,a4,102440 <DisplayGameOverScreen+0x214>
  102424:	fee44703          	lbu	a4,-18(s0)
  102428:	01300793          	li	a5,19
  10242c:	00e7ea63          	bltu	a5,a4,102440 <DisplayGameOverScreen+0x214>
  102430:	fef44703          	lbu	a4,-17(s0)
  102434:	fed44783          	lbu	a5,-19(s0)
  102438:	00478793          	addi	a5,a5,4
  10243c:	02f70e63          	beq	a4,a5,102478 <DisplayGameOverScreen+0x24c>
  102440:	fee44703          	lbu	a4,-18(s0)
  102444:	00d00793          	li	a5,13
  102448:	00f70863          	beq	a4,a5,102458 <DisplayGameOverScreen+0x22c>
  10244c:	fee44703          	lbu	a4,-18(s0)
  102450:	01300793          	li	a5,19
  102454:	04f71c63          	bne	a4,a5,1024ac <DisplayGameOverScreen+0x280>
  102458:	fed44783          	lbu	a5,-19(s0)
  10245c:	00478713          	addi	a4,a5,4
  102460:	fef44783          	lbu	a5,-17(s0)
  102464:	04f75463          	bge	a4,a5,1024ac <DisplayGameOverScreen+0x280>
  102468:	fef44703          	lbu	a4,-17(s0)
  10246c:	fed44783          	lbu	a5,-19(s0)
  102470:	00778793          	addi	a5,a5,7
  102474:	02e7cc63          	blt	a5,a4,1024ac <DisplayGameOverScreen+0x280>
  102478:	fef44703          	lbu	a4,-17(s0)
  10247c:	00070793          	mv	a5,a4
  102480:	00279793          	slli	a5,a5,0x2
  102484:	00e787b3          	add	a5,a5,a4
  102488:	00379793          	slli	a5,a5,0x3
  10248c:	00078713          	mv	a4,a5
  102490:	fee44783          	lbu	a5,-18(s0)
  102494:	00f707b3          	add	a5,a4,a5
  102498:	00279713          	slli	a4,a5,0x2
  10249c:	052007b7          	lui	a5,0x5200
  1024a0:	00f707b3          	add	a5,a4,a5
  1024a4:	00100713          	li	a4,1
  1024a8:	00e7a023          	sw	a4,0(a5) # 5200000 <_etext+0x50fb7ac>
  1024ac:	fee44703          	lbu	a4,-18(s0)
  1024b0:	01500793          	li	a5,21
  1024b4:	00f70863          	beq	a4,a5,1024c4 <DisplayGameOverScreen+0x298>
  1024b8:	fee44703          	lbu	a4,-18(s0)
  1024bc:	01c00793          	li	a5,28
  1024c0:	02f71063          	bne	a4,a5,1024e0 <DisplayGameOverScreen+0x2b4>
  1024c4:	fef44703          	lbu	a4,-17(s0)
  1024c8:	fed44783          	lbu	a5,-19(s0)
  1024cc:	00f76a63          	bltu	a4,a5,1024e0 <DisplayGameOverScreen+0x2b4>
  1024d0:	fef44703          	lbu	a4,-17(s0)
  1024d4:	fed44783          	lbu	a5,-19(s0)
  1024d8:	00778793          	addi	a5,a5,7
  1024dc:	08e7d263          	bge	a5,a4,102560 <DisplayGameOverScreen+0x334>
  1024e0:	fee44703          	lbu	a4,-18(s0)
  1024e4:	01600793          	li	a5,22
  1024e8:	00f70863          	beq	a4,a5,1024f8 <DisplayGameOverScreen+0x2cc>
  1024ec:	fee44703          	lbu	a4,-18(s0)
  1024f0:	01b00793          	li	a5,27
  1024f4:	00f71863          	bne	a4,a5,102504 <DisplayGameOverScreen+0x2d8>
  1024f8:	fef44703          	lbu	a4,-17(s0)
  1024fc:	fed44783          	lbu	a5,-19(s0)
  102500:	06f70063          	beq	a4,a5,102560 <DisplayGameOverScreen+0x334>
  102504:	fee44703          	lbu	a4,-18(s0)
  102508:	01700793          	li	a5,23
  10250c:	00f70863          	beq	a4,a5,10251c <DisplayGameOverScreen+0x2f0>
  102510:	fee44703          	lbu	a4,-18(s0)
  102514:	01a00793          	li	a5,26
  102518:	02f71063          	bne	a4,a5,102538 <DisplayGameOverScreen+0x30c>
  10251c:	fed44703          	lbu	a4,-19(s0)
  102520:	fef44783          	lbu	a5,-17(s0)
  102524:	00f77a63          	bgeu	a4,a5,102538 <DisplayGameOverScreen+0x30c>
  102528:	fef44703          	lbu	a4,-17(s0)
  10252c:	fed44783          	lbu	a5,-19(s0)
  102530:	00278793          	addi	a5,a5,2
  102534:	02e7d663          	bge	a5,a4,102560 <DisplayGameOverScreen+0x334>
  102538:	fee44703          	lbu	a4,-18(s0)
  10253c:	01800793          	li	a5,24
  102540:	00f70863          	beq	a4,a5,102550 <DisplayGameOverScreen+0x324>
  102544:	fee44703          	lbu	a4,-18(s0)
  102548:	01900793          	li	a5,25
  10254c:	04f71463          	bne	a4,a5,102594 <DisplayGameOverScreen+0x368>
  102550:	fef44703          	lbu	a4,-17(s0)
  102554:	fed44783          	lbu	a5,-19(s0)
  102558:	00378793          	addi	a5,a5,3
  10255c:	02f71c63          	bne	a4,a5,102594 <DisplayGameOverScreen+0x368>
  102560:	fef44703          	lbu	a4,-17(s0)
  102564:	00070793          	mv	a5,a4
  102568:	00279793          	slli	a5,a5,0x2
  10256c:	00e787b3          	add	a5,a5,a4
  102570:	00379793          	slli	a5,a5,0x3
  102574:	00078713          	mv	a4,a5
  102578:	fee44783          	lbu	a5,-18(s0)
  10257c:	00f707b3          	add	a5,a4,a5
  102580:	00279713          	slli	a4,a5,0x2
  102584:	052007b7          	lui	a5,0x5200
  102588:	00f707b3          	add	a5,a4,a5
  10258c:	00200713          	li	a4,2
  102590:	00e7a023          	sw	a4,0(a5) # 5200000 <_etext+0x50fb7ac>
  102594:	fee44703          	lbu	a4,-18(s0)
  102598:	01d00793          	li	a5,29
  10259c:	02e7f663          	bgeu	a5,a4,1025c8 <DisplayGameOverScreen+0x39c>
  1025a0:	fee44703          	lbu	a4,-18(s0)
  1025a4:	02200793          	li	a5,34
  1025a8:	02e7e063          	bltu	a5,a4,1025c8 <DisplayGameOverScreen+0x39c>
  1025ac:	fef44703          	lbu	a4,-17(s0)
  1025b0:	fed44783          	lbu	a5,-19(s0)
  1025b4:	06f70263          	beq	a4,a5,102618 <DisplayGameOverScreen+0x3ec>
  1025b8:	fef44703          	lbu	a4,-17(s0)
  1025bc:	fed44783          	lbu	a5,-19(s0)
  1025c0:	00778793          	addi	a5,a5,7
  1025c4:	04f70a63          	beq	a4,a5,102618 <DisplayGameOverScreen+0x3ec>
  1025c8:	fee44703          	lbu	a4,-18(s0)
  1025cc:	01e00793          	li	a5,30
  1025d0:	02f71063          	bne	a4,a5,1025f0 <DisplayGameOverScreen+0x3c4>
  1025d4:	fed44703          	lbu	a4,-19(s0)
  1025d8:	fef44783          	lbu	a5,-17(s0)
  1025dc:	00f77a63          	bgeu	a4,a5,1025f0 <DisplayGameOverScreen+0x3c4>
  1025e0:	fef44703          	lbu	a4,-17(s0)
  1025e4:	fed44783          	lbu	a5,-19(s0)
  1025e8:	00678793          	addi	a5,a5,6
  1025ec:	02e7d663          	bge	a5,a4,102618 <DisplayGameOverScreen+0x3ec>
  1025f0:	fee44703          	lbu	a4,-18(s0)
  1025f4:	01e00793          	li	a5,30
  1025f8:	04e7fa63          	bgeu	a5,a4,10264c <DisplayGameOverScreen+0x420>
  1025fc:	fee44703          	lbu	a4,-18(s0)
  102600:	02100793          	li	a5,33
  102604:	04e7e463          	bltu	a5,a4,10264c <DisplayGameOverScreen+0x420>
  102608:	fef44703          	lbu	a4,-17(s0)
  10260c:	fed44783          	lbu	a5,-19(s0)
  102610:	00478793          	addi	a5,a5,4
  102614:	02f71c63          	bne	a4,a5,10264c <DisplayGameOverScreen+0x420>
  102618:	fef44703          	lbu	a4,-17(s0)
  10261c:	00070793          	mv	a5,a4
  102620:	00279793          	slli	a5,a5,0x2
  102624:	00e787b3          	add	a5,a5,a4
  102628:	00379793          	slli	a5,a5,0x3
  10262c:	00078713          	mv	a4,a5
  102630:	fee44783          	lbu	a5,-18(s0)
  102634:	00f707b3          	add	a5,a4,a5
  102638:	00279713          	slli	a4,a5,0x2
  10263c:	052007b7          	lui	a5,0x5200
  102640:	00f707b3          	add	a5,a4,a5
  102644:	00400713          	li	a4,4
  102648:	00e7a023          	sw	a4,0(a5) # 5200000 <_etext+0x50fb7ac>
  10264c:	fee44703          	lbu	a4,-18(s0)
  102650:	00700793          	li	a5,7
  102654:	00f70863          	beq	a4,a5,102664 <DisplayGameOverScreen+0x438>
  102658:	fee44703          	lbu	a4,-18(s0)
  10265c:	00c00793          	li	a5,12
  102660:	02f71263          	bne	a4,a5,102684 <DisplayGameOverScreen+0x458>
  102664:	fed44783          	lbu	a5,-19(s0)
  102668:	00a78713          	addi	a4,a5,10
  10266c:	fef44783          	lbu	a5,-17(s0)
  102670:	00f75a63          	bge	a4,a5,102684 <DisplayGameOverScreen+0x458>
  102674:	fef44703          	lbu	a4,-17(s0)
  102678:	fed44783          	lbu	a5,-19(s0)
  10267c:	01078793          	addi	a5,a5,16
  102680:	02e7de63          	bge	a5,a4,1026bc <DisplayGameOverScreen+0x490>
  102684:	fef44703          	lbu	a4,-17(s0)
  102688:	fed44783          	lbu	a5,-19(s0)
  10268c:	00a78793          	addi	a5,a5,10
  102690:	00f70a63          	beq	a4,a5,1026a4 <DisplayGameOverScreen+0x478>
  102694:	fef44703          	lbu	a4,-17(s0)
  102698:	fed44783          	lbu	a5,-19(s0)
  10269c:	01178793          	addi	a5,a5,17
  1026a0:	04f71863          	bne	a4,a5,1026f0 <DisplayGameOverScreen+0x4c4>
  1026a4:	fee44703          	lbu	a4,-18(s0)
  1026a8:	00700793          	li	a5,7
  1026ac:	04e7f263          	bgeu	a5,a4,1026f0 <DisplayGameOverScreen+0x4c4>
  1026b0:	fee44703          	lbu	a4,-18(s0)
  1026b4:	00b00793          	li	a5,11
  1026b8:	02e7ec63          	bltu	a5,a4,1026f0 <DisplayGameOverScreen+0x4c4>
  1026bc:	fef44703          	lbu	a4,-17(s0)
  1026c0:	00070793          	mv	a5,a4
  1026c4:	00279793          	slli	a5,a5,0x2
  1026c8:	00e787b3          	add	a5,a5,a4
  1026cc:	00379793          	slli	a5,a5,0x3
  1026d0:	00078713          	mv	a4,a5
  1026d4:	fee44783          	lbu	a5,-18(s0)
  1026d8:	00f707b3          	add	a5,a4,a5
  1026dc:	00279713          	slli	a4,a5,0x2
  1026e0:	052007b7          	lui	a5,0x5200
  1026e4:	00f707b3          	add	a5,a4,a5
  1026e8:	00300713          	li	a4,3
  1026ec:	00e7a023          	sw	a4,0(a5) # 5200000 <_etext+0x50fb7ac>
  1026f0:	fee44703          	lbu	a4,-18(s0)
  1026f4:	00e00793          	li	a5,14
  1026f8:	00f70863          	beq	a4,a5,102708 <DisplayGameOverScreen+0x4dc>
  1026fc:	fee44703          	lbu	a4,-18(s0)
  102700:	01400793          	li	a5,20
  102704:	02f71263          	bne	a4,a5,102728 <DisplayGameOverScreen+0x4fc>
  102708:	fed44783          	lbu	a5,-19(s0)
  10270c:	00978713          	addi	a4,a5,9
  102710:	fef44783          	lbu	a5,-17(s0)
  102714:	00f75a63          	bge	a4,a5,102728 <DisplayGameOverScreen+0x4fc>
  102718:	fef44703          	lbu	a4,-17(s0)
  10271c:	fed44783          	lbu	a5,-19(s0)
  102720:	00c78793          	addi	a5,a5,12
  102724:	08e7d863          	bge	a5,a4,1027b4 <DisplayGameOverScreen+0x588>
  102728:	fee44703          	lbu	a4,-18(s0)
  10272c:	00f00793          	li	a5,15
  102730:	00f70863          	beq	a4,a5,102740 <DisplayGameOverScreen+0x514>
  102734:	fee44703          	lbu	a4,-18(s0)
  102738:	01300793          	li	a5,19
  10273c:	02f71263          	bne	a4,a5,102760 <DisplayGameOverScreen+0x534>
  102740:	fed44783          	lbu	a5,-19(s0)
  102744:	00c78713          	addi	a4,a5,12
  102748:	fef44783          	lbu	a5,-17(s0)
  10274c:	00f75a63          	bge	a4,a5,102760 <DisplayGameOverScreen+0x534>
  102750:	fef44703          	lbu	a4,-17(s0)
  102754:	fed44783          	lbu	a5,-19(s0)
  102758:	00e78793          	addi	a5,a5,14
  10275c:	04e7dc63          	bge	a5,a4,1027b4 <DisplayGameOverScreen+0x588>
  102760:	fee44703          	lbu	a4,-18(s0)
  102764:	01000793          	li	a5,16
  102768:	00f70863          	beq	a4,a5,102778 <DisplayGameOverScreen+0x54c>
  10276c:	fee44703          	lbu	a4,-18(s0)
  102770:	01200793          	li	a5,18
  102774:	00f71a63          	bne	a4,a5,102788 <DisplayGameOverScreen+0x55c>
  102778:	fef44703          	lbu	a4,-17(s0)
  10277c:	fed44783          	lbu	a5,-19(s0)
  102780:	00f78793          	addi	a5,a5,15
  102784:	02f70863          	beq	a4,a5,1027b4 <DisplayGameOverScreen+0x588>
  102788:	fee44703          	lbu	a4,-18(s0)
  10278c:	01100793          	li	a5,17
  102790:	04f71c63          	bne	a4,a5,1027e8 <DisplayGameOverScreen+0x5bc>
  102794:	fed44783          	lbu	a5,-19(s0)
  102798:	00f78713          	addi	a4,a5,15
  10279c:	fef44783          	lbu	a5,-17(s0)
  1027a0:	04f75463          	bge	a4,a5,1027e8 <DisplayGameOverScreen+0x5bc>
  1027a4:	fef44703          	lbu	a4,-17(s0)
  1027a8:	fed44783          	lbu	a5,-19(s0)
  1027ac:	01178793          	addi	a5,a5,17
  1027b0:	02e7cc63          	blt	a5,a4,1027e8 <DisplayGameOverScreen+0x5bc>
  1027b4:	fef44703          	lbu	a4,-17(s0)
  1027b8:	00070793          	mv	a5,a4
  1027bc:	00279793          	slli	a5,a5,0x2
  1027c0:	00e787b3          	add	a5,a5,a4
  1027c4:	00379793          	slli	a5,a5,0x3
  1027c8:	00078713          	mv	a4,a5
  1027cc:	fee44783          	lbu	a5,-18(s0)
  1027d0:	00f707b3          	add	a5,a4,a5
  1027d4:	00279713          	slli	a4,a5,0x2
  1027d8:	052007b7          	lui	a5,0x5200
  1027dc:	00f707b3          	add	a5,a4,a5
  1027e0:	00100713          	li	a4,1
  1027e4:	00e7a023          	sw	a4,0(a5) # 5200000 <_etext+0x50fb7ac>
  1027e8:	fee44703          	lbu	a4,-18(s0)
  1027ec:	01500793          	li	a5,21
  1027f0:	02e7f863          	bgeu	a5,a4,102820 <DisplayGameOverScreen+0x5f4>
  1027f4:	fee44703          	lbu	a4,-18(s0)
  1027f8:	01a00793          	li	a5,26
  1027fc:	02e7e263          	bltu	a5,a4,102820 <DisplayGameOverScreen+0x5f4>
  102800:	fef44703          	lbu	a4,-17(s0)
  102804:	fed44783          	lbu	a5,-19(s0)
  102808:	00a78793          	addi	a5,a5,10
  10280c:	06f70463          	beq	a4,a5,102874 <DisplayGameOverScreen+0x648>
  102810:	fef44703          	lbu	a4,-17(s0)
  102814:	fed44783          	lbu	a5,-19(s0)
  102818:	01178793          	addi	a5,a5,17
  10281c:	04f70c63          	beq	a4,a5,102874 <DisplayGameOverScreen+0x648>
  102820:	fee44703          	lbu	a4,-18(s0)
  102824:	01600793          	li	a5,22
  102828:	02f71263          	bne	a4,a5,10284c <DisplayGameOverScreen+0x620>
  10282c:	fed44783          	lbu	a5,-19(s0)
  102830:	00a78713          	addi	a4,a5,10
  102834:	fef44783          	lbu	a5,-17(s0)
  102838:	00f75a63          	bge	a4,a5,10284c <DisplayGameOverScreen+0x620>
  10283c:	fef44703          	lbu	a4,-17(s0)
  102840:	fed44783          	lbu	a5,-19(s0)
  102844:	01078793          	addi	a5,a5,16
  102848:	02e7d663          	bge	a5,a4,102874 <DisplayGameOverScreen+0x648>
  10284c:	fee44703          	lbu	a4,-18(s0)
  102850:	01600793          	li	a5,22
  102854:	04e7fa63          	bgeu	a5,a4,1028a8 <DisplayGameOverScreen+0x67c>
  102858:	fee44703          	lbu	a4,-18(s0)
  10285c:	01900793          	li	a5,25
  102860:	04e7e463          	bltu	a5,a4,1028a8 <DisplayGameOverScreen+0x67c>
  102864:	fef44703          	lbu	a4,-17(s0)
  102868:	fed44783          	lbu	a5,-19(s0)
  10286c:	00e78793          	addi	a5,a5,14
  102870:	02f71c63          	bne	a4,a5,1028a8 <DisplayGameOverScreen+0x67c>
  102874:	fef44703          	lbu	a4,-17(s0)
  102878:	00070793          	mv	a5,a4
  10287c:	00279793          	slli	a5,a5,0x2
  102880:	00e787b3          	add	a5,a5,a4
  102884:	00379793          	slli	a5,a5,0x3
  102888:	00078713          	mv	a4,a5
  10288c:	fee44783          	lbu	a5,-18(s0)
  102890:	00f707b3          	add	a5,a4,a5
  102894:	00279713          	slli	a4,a5,0x2
  102898:	052007b7          	lui	a5,0x5200
  10289c:	00f707b3          	add	a5,a4,a5
  1028a0:	00200713          	li	a4,2
  1028a4:	00e7a023          	sw	a4,0(a5) # 5200000 <_etext+0x50fb7ac>
  1028a8:	fee44703          	lbu	a4,-18(s0)
  1028ac:	01c00793          	li	a5,28
  1028b0:	02f71263          	bne	a4,a5,1028d4 <DisplayGameOverScreen+0x6a8>
  1028b4:	fed44783          	lbu	a5,-19(s0)
  1028b8:	00978713          	addi	a4,a5,9
  1028bc:	fef44783          	lbu	a5,-17(s0)
  1028c0:	00f75a63          	bge	a4,a5,1028d4 <DisplayGameOverScreen+0x6a8>
  1028c4:	fef44703          	lbu	a4,-17(s0)
  1028c8:	fed44783          	lbu	a5,-19(s0)
  1028cc:	01178793          	addi	a5,a5,17
  1028d0:	0ae7de63          	bge	a5,a4,10298c <DisplayGameOverScreen+0x760>
  1028d4:	fee44703          	lbu	a4,-18(s0)
  1028d8:	01c00793          	li	a5,28
  1028dc:	02e7f863          	bgeu	a5,a4,10290c <DisplayGameOverScreen+0x6e0>
  1028e0:	fee44703          	lbu	a4,-18(s0)
  1028e4:	01f00793          	li	a5,31
  1028e8:	02e7e263          	bltu	a5,a4,10290c <DisplayGameOverScreen+0x6e0>
  1028ec:	fef44703          	lbu	a4,-17(s0)
  1028f0:	fed44783          	lbu	a5,-19(s0)
  1028f4:	00e78793          	addi	a5,a5,14
  1028f8:	08f70a63          	beq	a4,a5,10298c <DisplayGameOverScreen+0x760>
  1028fc:	fef44703          	lbu	a4,-17(s0)
  102900:	fed44783          	lbu	a5,-19(s0)
  102904:	00a78793          	addi	a5,a5,10
  102908:	08f70263          	beq	a4,a5,10298c <DisplayGameOverScreen+0x760>
  10290c:	fee44703          	lbu	a4,-18(s0)
  102910:	02000793          	li	a5,32
  102914:	02f71263          	bne	a4,a5,102938 <DisplayGameOverScreen+0x70c>
  102918:	fed44783          	lbu	a5,-19(s0)
  10291c:	00a78713          	addi	a4,a5,10
  102920:	fef44783          	lbu	a5,-17(s0)
  102924:	00f75a63          	bge	a4,a5,102938 <DisplayGameOverScreen+0x70c>
  102928:	fef44703          	lbu	a4,-17(s0)
  10292c:	fed44783          	lbu	a5,-19(s0)
  102930:	00d78793          	addi	a5,a5,13
  102934:	04e7dc63          	bge	a5,a4,10298c <DisplayGameOverScreen+0x760>
  102938:	fee44703          	lbu	a4,-18(s0)
  10293c:	01e00793          	li	a5,30
  102940:	00f71a63          	bne	a4,a5,102954 <DisplayGameOverScreen+0x728>
  102944:	fef44703          	lbu	a4,-17(s0)
  102948:	fed44783          	lbu	a5,-19(s0)
  10294c:	00f78793          	addi	a5,a5,15
  102950:	02f70e63          	beq	a4,a5,10298c <DisplayGameOverScreen+0x760>
  102954:	fee44703          	lbu	a4,-18(s0)
  102958:	01f00793          	li	a5,31
  10295c:	00f71a63          	bne	a4,a5,102970 <DisplayGameOverScreen+0x744>
  102960:	fef44703          	lbu	a4,-17(s0)
  102964:	fed44783          	lbu	a5,-19(s0)
  102968:	01078793          	addi	a5,a5,16
  10296c:	02f70063          	beq	a4,a5,10298c <DisplayGameOverScreen+0x760>
  102970:	fee44703          	lbu	a4,-18(s0)
  102974:	02000793          	li	a5,32
  102978:	04f71463          	bne	a4,a5,1029c0 <DisplayGameOverScreen+0x794>
  10297c:	fef44703          	lbu	a4,-17(s0)
  102980:	fed44783          	lbu	a5,-19(s0)
  102984:	01178793          	addi	a5,a5,17
  102988:	02f71c63          	bne	a4,a5,1029c0 <DisplayGameOverScreen+0x794>
  10298c:	fef44703          	lbu	a4,-17(s0)
  102990:	00070793          	mv	a5,a4
  102994:	00279793          	slli	a5,a5,0x2
  102998:	00e787b3          	add	a5,a5,a4
  10299c:	00379793          	slli	a5,a5,0x3
  1029a0:	00078713          	mv	a4,a5
  1029a4:	fee44783          	lbu	a5,-18(s0)
  1029a8:	00f707b3          	add	a5,a4,a5
  1029ac:	00279713          	slli	a4,a5,0x2
  1029b0:	052007b7          	lui	a5,0x5200
  1029b4:	00f707b3          	add	a5,a4,a5
  1029b8:	00400713          	li	a4,4
  1029bc:	00e7a023          	sw	a4,0(a5) # 5200000 <_etext+0x50fb7ac>
  1029c0:	fee44783          	lbu	a5,-18(s0)
  1029c4:	00178793          	addi	a5,a5,1
  1029c8:	fef40723          	sb	a5,-18(s0)
  1029cc:	fee44703          	lbu	a4,-18(s0)
  1029d0:	02700793          	li	a5,39
  1029d4:	88e7f2e3          	bgeu	a5,a4,102258 <DisplayGameOverScreen+0x2c>
  1029d8:	fef44783          	lbu	a5,-17(s0)
  1029dc:	00178793          	addi	a5,a5,1
  1029e0:	fef407a3          	sb	a5,-17(s0)
  1029e4:	fef44703          	lbu	a4,-17(s0)
  1029e8:	01d00793          	li	a5,29
  1029ec:	86e7f2e3          	bgeu	a5,a4,102250 <DisplayGameOverScreen+0x24>
  1029f0:	fdc42703          	lw	a4,-36(s0)
  1029f4:	00300793          	li	a5,3
  1029f8:	02f71a63          	bne	a4,a5,102a2c <DisplayGameOverScreen+0x800>
  1029fc:	00300613          	li	a2,3
  102a00:	01500593          	li	a1,21
  102a04:	00500513          	li	a0,5
  102a08:	8a8ff0ef          	jal	ra,101ab0 <DisplayHeart>
  102a0c:	00300613          	li	a2,3
  102a10:	01500593          	li	a1,21
  102a14:	00f00513          	li	a0,15
  102a18:	898ff0ef          	jal	ra,101ab0 <DisplayHeart>
  102a1c:	00300613          	li	a2,3
  102a20:	01500593          	li	a1,21
  102a24:	01900513          	li	a0,25
  102a28:	888ff0ef          	jal	ra,101ab0 <DisplayHeart>
  102a2c:	fdc42703          	lw	a4,-36(s0)
  102a30:	00200793          	li	a5,2
  102a34:	02f71a63          	bne	a4,a5,102a68 <DisplayGameOverScreen+0x83c>
  102a38:	00300613          	li	a2,3
  102a3c:	01500593          	li	a1,21
  102a40:	00500513          	li	a0,5
  102a44:	86cff0ef          	jal	ra,101ab0 <DisplayHeart>
  102a48:	00300613          	li	a2,3
  102a4c:	01500593          	li	a1,21
  102a50:	00f00513          	li	a0,15
  102a54:	85cff0ef          	jal	ra,101ab0 <DisplayHeart>
  102a58:	00900613          	li	a2,9
  102a5c:	01500593          	li	a1,21
  102a60:	01900513          	li	a0,25
  102a64:	84cff0ef          	jal	ra,101ab0 <DisplayHeart>
  102a68:	fdc42703          	lw	a4,-36(s0)
  102a6c:	00100793          	li	a5,1
  102a70:	02f71a63          	bne	a4,a5,102aa4 <DisplayGameOverScreen+0x878>
  102a74:	00300613          	li	a2,3
  102a78:	01500593          	li	a1,21
  102a7c:	00500513          	li	a0,5
  102a80:	830ff0ef          	jal	ra,101ab0 <DisplayHeart>
  102a84:	00900613          	li	a2,9
  102a88:	01500593          	li	a1,21
  102a8c:	00f00513          	li	a0,15
  102a90:	820ff0ef          	jal	ra,101ab0 <DisplayHeart>
  102a94:	00900613          	li	a2,9
  102a98:	01500593          	li	a1,21
  102a9c:	01900513          	li	a0,25
  102aa0:	810ff0ef          	jal	ra,101ab0 <DisplayHeart>
  102aa4:	00000013          	nop
  102aa8:	02c12083          	lw	ra,44(sp)
  102aac:	02812403          	lw	s0,40(sp)
  102ab0:	03010113          	addi	sp,sp,48
  102ab4:	00008067          	ret

00102ab8 <DisplayTheEndScreen>:
  102ab8:	fe010113          	addi	sp,sp,-32
  102abc:	00812e23          	sw	s0,28(sp)
  102ac0:	02010413          	addi	s0,sp,32
  102ac4:	00800793          	li	a5,8
  102ac8:	fef406a3          	sb	a5,-19(s0)
  102acc:	fe0407a3          	sb	zero,-17(s0)
  102ad0:	4b00006f          	j	102f80 <DisplayTheEndScreen+0x4c8>
  102ad4:	fe040723          	sb	zero,-18(s0)
  102ad8:	4900006f          	j	102f68 <DisplayTheEndScreen+0x4b0>
  102adc:	fef44703          	lbu	a4,-17(s0)
  102ae0:	00070793          	mv	a5,a4
  102ae4:	00279793          	slli	a5,a5,0x2
  102ae8:	00e787b3          	add	a5,a5,a4
  102aec:	00379793          	slli	a5,a5,0x3
  102af0:	00078713          	mv	a4,a5
  102af4:	fee44783          	lbu	a5,-18(s0)
  102af8:	00f707b3          	add	a5,a4,a5
  102afc:	00279713          	slli	a4,a5,0x2
  102b00:	052007b7          	lui	a5,0x5200
  102b04:	00f707b3          	add	a5,a4,a5
  102b08:	0007a023          	sw	zero,0(a5) # 5200000 <_etext+0x50fb7ac>
  102b0c:	fef44703          	lbu	a4,-17(s0)
  102b10:	fed44783          	lbu	a5,-19(s0)
  102b14:	00f71e63          	bne	a4,a5,102b30 <DisplayTheEndScreen+0x78>
  102b18:	fee44703          	lbu	a4,-18(s0)
  102b1c:	00400793          	li	a5,4
  102b20:	00e7f863          	bgeu	a5,a4,102b30 <DisplayTheEndScreen+0x78>
  102b24:	fee44703          	lbu	a4,-18(s0)
  102b28:	00700793          	li	a5,7
  102b2c:	02e7f663          	bgeu	a5,a4,102b58 <DisplayTheEndScreen+0xa0>
  102b30:	fee44703          	lbu	a4,-18(s0)
  102b34:	00600793          	li	a5,6
  102b38:	04f71a63          	bne	a4,a5,102b8c <DisplayTheEndScreen+0xd4>
  102b3c:	fef44703          	lbu	a4,-17(s0)
  102b40:	fed44783          	lbu	a5,-19(s0)
  102b44:	04f76463          	bltu	a4,a5,102b8c <DisplayTheEndScreen+0xd4>
  102b48:	fef44703          	lbu	a4,-17(s0)
  102b4c:	fed44783          	lbu	a5,-19(s0)
  102b50:	00478793          	addi	a5,a5,4
  102b54:	02e7cc63          	blt	a5,a4,102b8c <DisplayTheEndScreen+0xd4>
  102b58:	fef44703          	lbu	a4,-17(s0)
  102b5c:	00070793          	mv	a5,a4
  102b60:	00279793          	slli	a5,a5,0x2
  102b64:	00e787b3          	add	a5,a5,a4
  102b68:	00379793          	slli	a5,a5,0x3
  102b6c:	00078713          	mv	a4,a5
  102b70:	fee44783          	lbu	a5,-18(s0)
  102b74:	00f707b3          	add	a5,a4,a5
  102b78:	00279713          	slli	a4,a5,0x2
  102b7c:	052007b7          	lui	a5,0x5200
  102b80:	00f707b3          	add	a5,a4,a5
  102b84:	00300713          	li	a4,3
  102b88:	00e7a023          	sw	a4,0(a5) # 5200000 <_etext+0x50fb7ac>
  102b8c:	fef44703          	lbu	a4,-17(s0)
  102b90:	fed44783          	lbu	a5,-19(s0)
  102b94:	00278793          	addi	a5,a5,2
  102b98:	00f71e63          	bne	a4,a5,102bb4 <DisplayTheEndScreen+0xfc>
  102b9c:	fee44703          	lbu	a4,-18(s0)
  102ba0:	00800793          	li	a5,8
  102ba4:	00e7f863          	bgeu	a5,a4,102bb4 <DisplayTheEndScreen+0xfc>
  102ba8:	fee44703          	lbu	a4,-18(s0)
  102bac:	00b00793          	li	a5,11
  102bb0:	02e7fc63          	bgeu	a5,a4,102be8 <DisplayTheEndScreen+0x130>
  102bb4:	fee44703          	lbu	a4,-18(s0)
  102bb8:	00900793          	li	a5,9
  102bbc:	00f70863          	beq	a4,a5,102bcc <DisplayTheEndScreen+0x114>
  102bc0:	fee44703          	lbu	a4,-18(s0)
  102bc4:	00b00793          	li	a5,11
  102bc8:	04f71a63          	bne	a4,a5,102c1c <DisplayTheEndScreen+0x164>
  102bcc:	fef44703          	lbu	a4,-17(s0)
  102bd0:	fed44783          	lbu	a5,-19(s0)
  102bd4:	04f76463          	bltu	a4,a5,102c1c <DisplayTheEndScreen+0x164>
  102bd8:	fef44703          	lbu	a4,-17(s0)
  102bdc:	fed44783          	lbu	a5,-19(s0)
  102be0:	00478793          	addi	a5,a5,4
  102be4:	02e7cc63          	blt	a5,a4,102c1c <DisplayTheEndScreen+0x164>
  102be8:	fef44703          	lbu	a4,-17(s0)
  102bec:	00070793          	mv	a5,a4
  102bf0:	00279793          	slli	a5,a5,0x2
  102bf4:	00e787b3          	add	a5,a5,a4
  102bf8:	00379793          	slli	a5,a5,0x3
  102bfc:	00078713          	mv	a4,a5
  102c00:	fee44783          	lbu	a5,-18(s0)
  102c04:	00f707b3          	add	a5,a4,a5
  102c08:	00279713          	slli	a4,a5,0x2
  102c0c:	052007b7          	lui	a5,0x5200
  102c10:	00f707b3          	add	a5,a4,a5
  102c14:	00300713          	li	a4,3
  102c18:	00e7a023          	sw	a4,0(a5) # 5200000 <_etext+0x50fb7ac>
  102c1c:	fef44703          	lbu	a4,-17(s0)
  102c20:	fed44783          	lbu	a5,-19(s0)
  102c24:	00f70a63          	beq	a4,a5,102c38 <DisplayTheEndScreen+0x180>
  102c28:	fef44703          	lbu	a4,-17(s0)
  102c2c:	fed44783          	lbu	a5,-19(s0)
  102c30:	00478793          	addi	a5,a5,4
  102c34:	00f71e63          	bne	a4,a5,102c50 <DisplayTheEndScreen+0x198>
  102c38:	fee44703          	lbu	a4,-18(s0)
  102c3c:	00c00793          	li	a5,12
  102c40:	00e7f863          	bgeu	a5,a4,102c50 <DisplayTheEndScreen+0x198>
  102c44:	fee44703          	lbu	a4,-18(s0)
  102c48:	00f00793          	li	a5,15
  102c4c:	04e7fa63          	bgeu	a5,a4,102ca0 <DisplayTheEndScreen+0x1e8>
  102c50:	fee44703          	lbu	a4,-18(s0)
  102c54:	00d00793          	li	a5,13
  102c58:	02f71063          	bne	a4,a5,102c78 <DisplayTheEndScreen+0x1c0>
  102c5c:	fef44703          	lbu	a4,-17(s0)
  102c60:	fed44783          	lbu	a5,-19(s0)
  102c64:	00f76a63          	bltu	a4,a5,102c78 <DisplayTheEndScreen+0x1c0>
  102c68:	fef44703          	lbu	a4,-17(s0)
  102c6c:	fed44783          	lbu	a5,-19(s0)
  102c70:	00478793          	addi	a5,a5,4
  102c74:	02e7d663          	bge	a5,a4,102ca0 <DisplayTheEndScreen+0x1e8>
  102c78:	fef44703          	lbu	a4,-17(s0)
  102c7c:	fed44783          	lbu	a5,-19(s0)
  102c80:	00278793          	addi	a5,a5,2
  102c84:	04f71863          	bne	a4,a5,102cd4 <DisplayTheEndScreen+0x21c>
  102c88:	fee44703          	lbu	a4,-18(s0)
  102c8c:	00c00793          	li	a5,12
  102c90:	04e7f263          	bgeu	a5,a4,102cd4 <DisplayTheEndScreen+0x21c>
  102c94:	fee44703          	lbu	a4,-18(s0)
  102c98:	00e00793          	li	a5,14
  102c9c:	02e7ec63          	bltu	a5,a4,102cd4 <DisplayTheEndScreen+0x21c>
  102ca0:	fef44703          	lbu	a4,-17(s0)
  102ca4:	00070793          	mv	a5,a4
  102ca8:	00279793          	slli	a5,a5,0x2
  102cac:	00e787b3          	add	a5,a5,a4
  102cb0:	00379793          	slli	a5,a5,0x3
  102cb4:	00078713          	mv	a4,a5
  102cb8:	fee44783          	lbu	a5,-18(s0)
  102cbc:	00f707b3          	add	a5,a4,a5
  102cc0:	00279713          	slli	a4,a5,0x2
  102cc4:	052007b7          	lui	a5,0x5200
  102cc8:	00f707b3          	add	a5,a4,a5
  102ccc:	00300713          	li	a4,3
  102cd0:	00e7a023          	sw	a4,0(a5) # 5200000 <_etext+0x50fb7ac>
  102cd4:	fef44703          	lbu	a4,-17(s0)
  102cd8:	fed44783          	lbu	a5,-19(s0)
  102cdc:	00f70a63          	beq	a4,a5,102cf0 <DisplayTheEndScreen+0x238>
  102ce0:	fef44703          	lbu	a4,-17(s0)
  102ce4:	fed44783          	lbu	a5,-19(s0)
  102ce8:	00478793          	addi	a5,a5,4
  102cec:	00f71e63          	bne	a4,a5,102d08 <DisplayTheEndScreen+0x250>
  102cf0:	fee44703          	lbu	a4,-18(s0)
  102cf4:	01300793          	li	a5,19
  102cf8:	00e7f863          	bgeu	a5,a4,102d08 <DisplayTheEndScreen+0x250>
  102cfc:	fee44703          	lbu	a4,-18(s0)
  102d00:	01600793          	li	a5,22
  102d04:	04e7fa63          	bgeu	a5,a4,102d58 <DisplayTheEndScreen+0x2a0>
  102d08:	fee44703          	lbu	a4,-18(s0)
  102d0c:	01400793          	li	a5,20
  102d10:	02f71063          	bne	a4,a5,102d30 <DisplayTheEndScreen+0x278>
  102d14:	fef44703          	lbu	a4,-17(s0)
  102d18:	fed44783          	lbu	a5,-19(s0)
  102d1c:	00f76a63          	bltu	a4,a5,102d30 <DisplayTheEndScreen+0x278>
  102d20:	fef44703          	lbu	a4,-17(s0)
  102d24:	fed44783          	lbu	a5,-19(s0)
  102d28:	00478793          	addi	a5,a5,4
  102d2c:	02e7d663          	bge	a5,a4,102d58 <DisplayTheEndScreen+0x2a0>
  102d30:	fef44703          	lbu	a4,-17(s0)
  102d34:	fed44783          	lbu	a5,-19(s0)
  102d38:	00278793          	addi	a5,a5,2
  102d3c:	04f71863          	bne	a4,a5,102d8c <DisplayTheEndScreen+0x2d4>
  102d40:	fee44703          	lbu	a4,-18(s0)
  102d44:	01300793          	li	a5,19
  102d48:	04e7f263          	bgeu	a5,a4,102d8c <DisplayTheEndScreen+0x2d4>
  102d4c:	fee44703          	lbu	a4,-18(s0)
  102d50:	01500793          	li	a5,21
  102d54:	02e7ec63          	bltu	a5,a4,102d8c <DisplayTheEndScreen+0x2d4>
  102d58:	fef44703          	lbu	a4,-17(s0)
  102d5c:	00070793          	mv	a5,a4
  102d60:	00279793          	slli	a5,a5,0x2
  102d64:	00e787b3          	add	a5,a5,a4
  102d68:	00379793          	slli	a5,a5,0x3
  102d6c:	00078713          	mv	a4,a5
  102d70:	fee44783          	lbu	a5,-18(s0)
  102d74:	00f707b3          	add	a5,a4,a5
  102d78:	00279713          	slli	a4,a5,0x2
  102d7c:	052007b7          	lui	a5,0x5200
  102d80:	00f707b3          	add	a5,a4,a5
  102d84:	00300713          	li	a4,3
  102d88:	00e7a023          	sw	a4,0(a5) # 5200000 <_etext+0x50fb7ac>
  102d8c:	fef44703          	lbu	a4,-17(s0)
  102d90:	fed44783          	lbu	a5,-19(s0)
  102d94:	00278793          	addi	a5,a5,2
  102d98:	00f71863          	bne	a4,a5,102da8 <DisplayTheEndScreen+0x2f0>
  102d9c:	fee44703          	lbu	a4,-18(s0)
  102da0:	01900793          	li	a5,25
  102da4:	04f70a63          	beq	a4,a5,102df8 <DisplayTheEndScreen+0x340>
  102da8:	fef44703          	lbu	a4,-17(s0)
  102dac:	fed44783          	lbu	a5,-19(s0)
  102db0:	00378793          	addi	a5,a5,3
  102db4:	00f71863          	bne	a4,a5,102dc4 <DisplayTheEndScreen+0x30c>
  102db8:	fee44703          	lbu	a4,-18(s0)
  102dbc:	01a00793          	li	a5,26
  102dc0:	02f70c63          	beq	a4,a5,102df8 <DisplayTheEndScreen+0x340>
  102dc4:	fee44703          	lbu	a4,-18(s0)
  102dc8:	01800793          	li	a5,24
  102dcc:	00f70863          	beq	a4,a5,102ddc <DisplayTheEndScreen+0x324>
  102dd0:	fee44703          	lbu	a4,-18(s0)
  102dd4:	01b00793          	li	a5,27
  102dd8:	04f71a63          	bne	a4,a5,102e2c <DisplayTheEndScreen+0x374>
  102ddc:	fef44703          	lbu	a4,-17(s0)
  102de0:	fed44783          	lbu	a5,-19(s0)
  102de4:	04f76463          	bltu	a4,a5,102e2c <DisplayTheEndScreen+0x374>
  102de8:	fef44703          	lbu	a4,-17(s0)
  102dec:	fed44783          	lbu	a5,-19(s0)
  102df0:	00478793          	addi	a5,a5,4
  102df4:	02e7cc63          	blt	a5,a4,102e2c <DisplayTheEndScreen+0x374>
  102df8:	fef44703          	lbu	a4,-17(s0)
  102dfc:	00070793          	mv	a5,a4
  102e00:	00279793          	slli	a5,a5,0x2
  102e04:	00e787b3          	add	a5,a5,a4
  102e08:	00379793          	slli	a5,a5,0x3
  102e0c:	00078713          	mv	a4,a5
  102e10:	fee44783          	lbu	a5,-18(s0)
  102e14:	00f707b3          	add	a5,a4,a5
  102e18:	00279713          	slli	a4,a5,0x2
  102e1c:	052007b7          	lui	a5,0x5200
  102e20:	00f707b3          	add	a5,a4,a5
  102e24:	00300713          	li	a4,3
  102e28:	00e7a023          	sw	a4,0(a5) # 5200000 <_etext+0x50fb7ac>
  102e2c:	fee44703          	lbu	a4,-18(s0)
  102e30:	01f00793          	li	a5,31
  102e34:	02f71063          	bne	a4,a5,102e54 <DisplayTheEndScreen+0x39c>
  102e38:	fed44703          	lbu	a4,-19(s0)
  102e3c:	fef44783          	lbu	a5,-17(s0)
  102e40:	00f77a63          	bgeu	a4,a5,102e54 <DisplayTheEndScreen+0x39c>
  102e44:	fef44703          	lbu	a4,-17(s0)
  102e48:	fed44783          	lbu	a5,-19(s0)
  102e4c:	00378793          	addi	a5,a5,3
  102e50:	06e7d063          	bge	a5,a4,102eb0 <DisplayTheEndScreen+0x3f8>
  102e54:	fef44703          	lbu	a4,-17(s0)
  102e58:	fed44783          	lbu	a5,-19(s0)
  102e5c:	00f70a63          	beq	a4,a5,102e70 <DisplayTheEndScreen+0x3b8>
  102e60:	fef44703          	lbu	a4,-17(s0)
  102e64:	fed44783          	lbu	a5,-19(s0)
  102e68:	00478793          	addi	a5,a5,4
  102e6c:	00f71e63          	bne	a4,a5,102e88 <DisplayTheEndScreen+0x3d0>
  102e70:	fee44703          	lbu	a4,-18(s0)
  102e74:	01c00793          	li	a5,28
  102e78:	00e7f863          	bgeu	a5,a4,102e88 <DisplayTheEndScreen+0x3d0>
  102e7c:	fee44703          	lbu	a4,-18(s0)
  102e80:	01e00793          	li	a5,30
  102e84:	02e7f663          	bgeu	a5,a4,102eb0 <DisplayTheEndScreen+0x3f8>
  102e88:	fee44703          	lbu	a4,-18(s0)
  102e8c:	01d00793          	li	a5,29
  102e90:	04f71a63          	bne	a4,a5,102ee4 <DisplayTheEndScreen+0x42c>
  102e94:	fef44703          	lbu	a4,-17(s0)
  102e98:	fed44783          	lbu	a5,-19(s0)
  102e9c:	04f76463          	bltu	a4,a5,102ee4 <DisplayTheEndScreen+0x42c>
  102ea0:	fef44703          	lbu	a4,-17(s0)
  102ea4:	fed44783          	lbu	a5,-19(s0)
  102ea8:	00478793          	addi	a5,a5,4
  102eac:	02e7cc63          	blt	a5,a4,102ee4 <DisplayTheEndScreen+0x42c>
  102eb0:	fef44703          	lbu	a4,-17(s0)
  102eb4:	00070793          	mv	a5,a4
  102eb8:	00279793          	slli	a5,a5,0x2
  102ebc:	00e787b3          	add	a5,a5,a4
  102ec0:	00379793          	slli	a5,a5,0x3
  102ec4:	00078713          	mv	a4,a5
  102ec8:	fee44783          	lbu	a5,-18(s0)
  102ecc:	00f707b3          	add	a5,a4,a5
  102ed0:	00279713          	slli	a4,a5,0x2
  102ed4:	052007b7          	lui	a5,0x5200
  102ed8:	00f707b3          	add	a5,a4,a5
  102edc:	00300713          	li	a4,3
  102ee0:	00e7a023          	sw	a4,0(a5) # 5200000 <_etext+0x50fb7ac>
  102ee4:	fee44703          	lbu	a4,-18(s0)
  102ee8:	02100793          	li	a5,33
  102eec:	02f71063          	bne	a4,a5,102f0c <DisplayTheEndScreen+0x454>
  102ef0:	fef44703          	lbu	a4,-17(s0)
  102ef4:	fed44783          	lbu	a5,-19(s0)
  102ef8:	00f76a63          	bltu	a4,a5,102f0c <DisplayTheEndScreen+0x454>
  102efc:	fef44703          	lbu	a4,-17(s0)
  102f00:	fed44783          	lbu	a5,-19(s0)
  102f04:	00278793          	addi	a5,a5,2
  102f08:	02e7d063          	bge	a5,a4,102f28 <DisplayTheEndScreen+0x470>
  102f0c:	fee44703          	lbu	a4,-18(s0)
  102f10:	02100793          	li	a5,33
  102f14:	04f71463          	bne	a4,a5,102f5c <DisplayTheEndScreen+0x4a4>
  102f18:	fef44703          	lbu	a4,-17(s0)
  102f1c:	fed44783          	lbu	a5,-19(s0)
  102f20:	00478793          	addi	a5,a5,4
  102f24:	02f71c63          	bne	a4,a5,102f5c <DisplayTheEndScreen+0x4a4>
  102f28:	fef44703          	lbu	a4,-17(s0)
  102f2c:	00070793          	mv	a5,a4
  102f30:	00279793          	slli	a5,a5,0x2
  102f34:	00e787b3          	add	a5,a5,a4
  102f38:	00379793          	slli	a5,a5,0x3
  102f3c:	00078713          	mv	a4,a5
  102f40:	fee44783          	lbu	a5,-18(s0)
  102f44:	00f707b3          	add	a5,a4,a5
  102f48:	00279713          	slli	a4,a5,0x2
  102f4c:	052007b7          	lui	a5,0x5200
  102f50:	00f707b3          	add	a5,a4,a5
  102f54:	00300713          	li	a4,3
  102f58:	00e7a023          	sw	a4,0(a5) # 5200000 <_etext+0x50fb7ac>
  102f5c:	fee44783          	lbu	a5,-18(s0)
  102f60:	00178793          	addi	a5,a5,1
  102f64:	fef40723          	sb	a5,-18(s0)
  102f68:	fee44703          	lbu	a4,-18(s0)
  102f6c:	02700793          	li	a5,39
  102f70:	b6e7f6e3          	bgeu	a5,a4,102adc <DisplayTheEndScreen+0x24>
  102f74:	fef44783          	lbu	a5,-17(s0)
  102f78:	00178793          	addi	a5,a5,1
  102f7c:	fef407a3          	sb	a5,-17(s0)
  102f80:	fef44703          	lbu	a4,-17(s0)
  102f84:	01600793          	li	a5,22
  102f88:	b4e7f6e3          	bgeu	a5,a4,102ad4 <DisplayTheEndScreen+0x1c>
  102f8c:	00000013          	nop
  102f90:	00000013          	nop
  102f94:	01c12403          	lw	s0,28(sp)
  102f98:	02010113          	addi	sp,sp,32
  102f9c:	00008067          	ret

00102fa0 <CharactersInit>:
  102fa0:	fe010113          	addi	sp,sp,-32
  102fa4:	00812e23          	sw	s0,28(sp)
  102fa8:	02010413          	addi	s0,sp,32
  102fac:	000017b7          	lui	a5,0x1
  102fb0:	fff78793          	addi	a5,a5,-1 # fff <_ebss+0xacf>
  102fb4:	fef42623          	sw	a5,-20(s0)
  102fb8:	fe0405a3          	sb	zero,-21(s0)
  102fbc:	4d40006f          	j	103490 <CharactersInit+0x4f0>
  102fc0:	fe040523          	sb	zero,-22(s0)
  102fc4:	4b40006f          	j	103478 <CharactersInit+0x4d8>
  102fc8:	fe0404a3          	sb	zero,-23(s0)
  102fcc:	4940006f          	j	103460 <CharactersInit+0x4c0>
  102fd0:	feb44783          	lbu	a5,-21(s0)
  102fd4:	04079863          	bnez	a5,103024 <CharactersInit+0x84>
  102fd8:	fea44783          	lbu	a5,-22(s0)
  102fdc:	00078863          	beqz	a5,102fec <CharactersInit+0x4c>
  102fe0:	fea44703          	lbu	a4,-22(s0)
  102fe4:	00100793          	li	a5,1
  102fe8:	00f71863          	bne	a4,a5,102ff8 <CharactersInit+0x58>
  102fec:	22200793          	li	a5,546
  102ff0:	fef42623          	sw	a5,-20(s0)
  102ff4:	4300006f          	j	103424 <CharactersInit+0x484>
  102ff8:	fe944703          	lbu	a4,-23(s0)
  102ffc:	01e00793          	li	a5,30
  103000:	00f70863          	beq	a4,a5,103010 <CharactersInit+0x70>
  103004:	fe944703          	lbu	a4,-23(s0)
  103008:	01f00793          	li	a5,31
  10300c:	00f71863          	bne	a4,a5,10301c <CharactersInit+0x7c>
  103010:	11100793          	li	a5,273
  103014:	fef42623          	sw	a5,-20(s0)
  103018:	40c0006f          	j	103424 <CharactersInit+0x484>
  10301c:	fe042623          	sw	zero,-20(s0)
  103020:	4040006f          	j	103424 <CharactersInit+0x484>
  103024:	feb44703          	lbu	a4,-21(s0)
  103028:	00100793          	li	a5,1
  10302c:	04f71c63          	bne	a4,a5,103084 <CharactersInit+0xe4>
  103030:	fea44783          	lbu	a5,-22(s0)
  103034:	00078863          	beqz	a5,103044 <CharactersInit+0xa4>
  103038:	fea44703          	lbu	a4,-22(s0)
  10303c:	00100793          	li	a5,1
  103040:	00f71863          	bne	a4,a5,103050 <CharactersInit+0xb0>
  103044:	08000793          	li	a5,128
  103048:	fef42623          	sw	a5,-20(s0)
  10304c:	3d80006f          	j	103424 <CharactersInit+0x484>
  103050:	fe944703          	lbu	a4,-23(s0)
  103054:	01e00793          	li	a5,30
  103058:	00f70863          	beq	a4,a5,103068 <CharactersInit+0xc8>
  10305c:	fe944703          	lbu	a4,-23(s0)
  103060:	01f00793          	li	a5,31
  103064:	00f71863          	bne	a4,a5,103074 <CharactersInit+0xd4>
  103068:	08000793          	li	a5,128
  10306c:	fef42623          	sw	a5,-20(s0)
  103070:	3b40006f          	j	103424 <CharactersInit+0x484>
  103074:	000017b7          	lui	a5,0x1
  103078:	8b478793          	addi	a5,a5,-1868 # 8b4 <_ebss+0x384>
  10307c:	fef42623          	sw	a5,-20(s0)
  103080:	3a40006f          	j	103424 <CharactersInit+0x484>
  103084:	feb44703          	lbu	a4,-21(s0)
  103088:	00200793          	li	a5,2
  10308c:	04f71a63          	bne	a4,a5,1030e0 <CharactersInit+0x140>
  103090:	fea44783          	lbu	a5,-22(s0)
  103094:	00078863          	beqz	a5,1030a4 <CharactersInit+0x104>
  103098:	fea44703          	lbu	a4,-22(s0)
  10309c:	00100793          	li	a5,1
  1030a0:	00f71863          	bne	a4,a5,1030b0 <CharactersInit+0x110>
  1030a4:	00b00793          	li	a5,11
  1030a8:	fef42623          	sw	a5,-20(s0)
  1030ac:	3780006f          	j	103424 <CharactersInit+0x484>
  1030b0:	fe944703          	lbu	a4,-23(s0)
  1030b4:	01e00793          	li	a5,30
  1030b8:	00f70863          	beq	a4,a5,1030c8 <CharactersInit+0x128>
  1030bc:	fe944703          	lbu	a4,-23(s0)
  1030c0:	01f00793          	li	a5,31
  1030c4:	00f71863          	bne	a4,a5,1030d4 <CharactersInit+0x134>
  1030c8:	00b00793          	li	a5,11
  1030cc:	fef42623          	sw	a5,-20(s0)
  1030d0:	3540006f          	j	103424 <CharactersInit+0x484>
  1030d4:	00900793          	li	a5,9
  1030d8:	fef42623          	sw	a5,-20(s0)
  1030dc:	3480006f          	j	103424 <CharactersInit+0x484>
  1030e0:	feb44703          	lbu	a4,-21(s0)
  1030e4:	00300793          	li	a5,3
  1030e8:	06f71063          	bne	a4,a5,103148 <CharactersInit+0x1a8>
  1030ec:	fea44783          	lbu	a5,-22(s0)
  1030f0:	00078863          	beqz	a5,103100 <CharactersInit+0x160>
  1030f4:	fea44703          	lbu	a4,-22(s0)
  1030f8:	00100793          	li	a5,1
  1030fc:	00f71a63          	bne	a4,a5,103110 <CharactersInit+0x170>
  103100:	000017b7          	lui	a5,0x1
  103104:	a0078793          	addi	a5,a5,-1536 # a00 <_ebss+0x4d0>
  103108:	fef42623          	sw	a5,-20(s0)
  10310c:	3180006f          	j	103424 <CharactersInit+0x484>
  103110:	fe944703          	lbu	a4,-23(s0)
  103114:	01e00793          	li	a5,30
  103118:	00f70863          	beq	a4,a5,103128 <CharactersInit+0x188>
  10311c:	fe944703          	lbu	a4,-23(s0)
  103120:	01f00793          	li	a5,31
  103124:	00f71a63          	bne	a4,a5,103138 <CharactersInit+0x198>
  103128:	000017b7          	lui	a5,0x1
  10312c:	b0078793          	addi	a5,a5,-1280 # b00 <_ebss+0x5d0>
  103130:	fef42623          	sw	a5,-20(s0)
  103134:	2f00006f          	j	103424 <CharactersInit+0x484>
  103138:	000017b7          	lui	a5,0x1
  10313c:	f0078793          	addi	a5,a5,-256 # f00 <_ebss+0x9d0>
  103140:	fef42623          	sw	a5,-20(s0)
  103144:	2e00006f          	j	103424 <CharactersInit+0x484>
  103148:	feb44703          	lbu	a4,-21(s0)
  10314c:	00400793          	li	a5,4
  103150:	06f71063          	bne	a4,a5,1031b0 <CharactersInit+0x210>
  103154:	fea44783          	lbu	a5,-22(s0)
  103158:	00078863          	beqz	a5,103168 <CharactersInit+0x1c8>
  10315c:	fea44703          	lbu	a4,-22(s0)
  103160:	00100793          	li	a5,1
  103164:	00f71a63          	bne	a4,a5,103178 <CharactersInit+0x1d8>
  103168:	000017b7          	lui	a5,0x1
  10316c:	fd878793          	addi	a5,a5,-40 # fd8 <_ebss+0xaa8>
  103170:	fef42623          	sw	a5,-20(s0)
  103174:	2b00006f          	j	103424 <CharactersInit+0x484>
  103178:	fe944703          	lbu	a4,-23(s0)
  10317c:	01e00793          	li	a5,30
  103180:	00f70863          	beq	a4,a5,103190 <CharactersInit+0x1f0>
  103184:	fe944703          	lbu	a4,-23(s0)
  103188:	01f00793          	li	a5,31
  10318c:	00f71a63          	bne	a4,a5,1031a0 <CharactersInit+0x200>
  103190:	000017b7          	lui	a5,0x1
  103194:	fd478793          	addi	a5,a5,-44 # fd4 <_ebss+0xaa4>
  103198:	fef42623          	sw	a5,-20(s0)
  10319c:	2880006f          	j	103424 <CharactersInit+0x484>
  1031a0:	000017b7          	lui	a5,0x1
  1031a4:	ff078793          	addi	a5,a5,-16 # ff0 <_ebss+0xac0>
  1031a8:	fef42623          	sw	a5,-20(s0)
  1031ac:	2780006f          	j	103424 <CharactersInit+0x484>
  1031b0:	feb44703          	lbu	a4,-21(s0)
  1031b4:	00500793          	li	a5,5
  1031b8:	04f71a63          	bne	a4,a5,10320c <CharactersInit+0x26c>
  1031bc:	fea44783          	lbu	a5,-22(s0)
  1031c0:	00078863          	beqz	a5,1031d0 <CharactersInit+0x230>
  1031c4:	fea44703          	lbu	a4,-22(s0)
  1031c8:	00100793          	li	a5,1
  1031cc:	00f71863          	bne	a4,a5,1031dc <CharactersInit+0x23c>
  1031d0:	75d00793          	li	a5,1885
  1031d4:	fef42623          	sw	a5,-20(s0)
  1031d8:	24c0006f          	j	103424 <CharactersInit+0x484>
  1031dc:	fe944703          	lbu	a4,-23(s0)
  1031e0:	01e00793          	li	a5,30
  1031e4:	00f70863          	beq	a4,a5,1031f4 <CharactersInit+0x254>
  1031e8:	fe944703          	lbu	a4,-23(s0)
  1031ec:	01f00793          	li	a5,31
  1031f0:	00f71863          	bne	a4,a5,103200 <CharactersInit+0x260>
  1031f4:	74d00793          	li	a5,1869
  1031f8:	fef42623          	sw	a5,-20(s0)
  1031fc:	2280006f          	j	103424 <CharactersInit+0x484>
  103200:	70d00793          	li	a5,1805
  103204:	fef42623          	sw	a5,-20(s0)
  103208:	21c0006f          	j	103424 <CharactersInit+0x484>
  10320c:	feb44703          	lbu	a4,-21(s0)
  103210:	00600793          	li	a5,6
  103214:	06f71063          	bne	a4,a5,103274 <CharactersInit+0x2d4>
  103218:	fea44783          	lbu	a5,-22(s0)
  10321c:	00078863          	beqz	a5,10322c <CharactersInit+0x28c>
  103220:	fea44703          	lbu	a4,-22(s0)
  103224:	00100793          	li	a5,1
  103228:	00f71a63          	bne	a4,a5,10323c <CharactersInit+0x29c>
  10322c:	000017b7          	lui	a5,0x1
  103230:	faf78793          	addi	a5,a5,-81 # faf <_ebss+0xa7f>
  103234:	fef42623          	sw	a5,-20(s0)
  103238:	1ec0006f          	j	103424 <CharactersInit+0x484>
  10323c:	fe944703          	lbu	a4,-23(s0)
  103240:	01e00793          	li	a5,30
  103244:	00f70863          	beq	a4,a5,103254 <CharactersInit+0x2b4>
  103248:	fe944703          	lbu	a4,-23(s0)
  10324c:	01f00793          	li	a5,31
  103250:	00f71a63          	bne	a4,a5,103264 <CharactersInit+0x2c4>
  103254:	000017b7          	lui	a5,0x1
  103258:	f6f78793          	addi	a5,a5,-145 # f6f <_ebss+0xa3f>
  10325c:	fef42623          	sw	a5,-20(s0)
  103260:	1c40006f          	j	103424 <CharactersInit+0x484>
  103264:	000017b7          	lui	a5,0x1
  103268:	f0f78793          	addi	a5,a5,-241 # f0f <_ebss+0x9df>
  10326c:	fef42623          	sw	a5,-20(s0)
  103270:	1b40006f          	j	103424 <CharactersInit+0x484>
  103274:	feb44703          	lbu	a4,-21(s0)
  103278:	00700793          	li	a5,7
  10327c:	06f71063          	bne	a4,a5,1032dc <CharactersInit+0x33c>
  103280:	fea44783          	lbu	a5,-22(s0)
  103284:	00078863          	beqz	a5,103294 <CharactersInit+0x2f4>
  103288:	fea44703          	lbu	a4,-22(s0)
  10328c:	00100793          	li	a5,1
  103290:	00f71a63          	bne	a4,a5,1032a4 <CharactersInit+0x304>
  103294:	000017b7          	lui	a5,0x1
  103298:	fb078793          	addi	a5,a5,-80 # fb0 <_ebss+0xa80>
  10329c:	fef42623          	sw	a5,-20(s0)
  1032a0:	1840006f          	j	103424 <CharactersInit+0x484>
  1032a4:	fe944703          	lbu	a4,-23(s0)
  1032a8:	01e00793          	li	a5,30
  1032ac:	00f70863          	beq	a4,a5,1032bc <CharactersInit+0x31c>
  1032b0:	fe944703          	lbu	a4,-23(s0)
  1032b4:	01f00793          	li	a5,31
  1032b8:	00f71a63          	bne	a4,a5,1032cc <CharactersInit+0x32c>
  1032bc:	000017b7          	lui	a5,0x1
  1032c0:	f9078793          	addi	a5,a5,-112 # f90 <_ebss+0xa60>
  1032c4:	fef42623          	sw	a5,-20(s0)
  1032c8:	15c0006f          	j	103424 <CharactersInit+0x484>
  1032cc:	000017b7          	lui	a5,0x1
  1032d0:	fa078793          	addi	a5,a5,-96 # fa0 <_ebss+0xa70>
  1032d4:	fef42623          	sw	a5,-20(s0)
  1032d8:	14c0006f          	j	103424 <CharactersInit+0x484>
  1032dc:	feb44703          	lbu	a4,-21(s0)
  1032e0:	00800793          	li	a5,8
  1032e4:	00f71863          	bne	a4,a5,1032f4 <CharactersInit+0x354>
  1032e8:	0a000793          	li	a5,160
  1032ec:	fef42623          	sw	a5,-20(s0)
  1032f0:	1340006f          	j	103424 <CharactersInit+0x484>
  1032f4:	feb44703          	lbu	a4,-21(s0)
  1032f8:	00900793          	li	a5,9
  1032fc:	04f71e63          	bne	a4,a5,103358 <CharactersInit+0x3b8>
  103300:	fe944703          	lbu	a4,-23(s0)
  103304:	01e00793          	li	a5,30
  103308:	00f70863          	beq	a4,a5,103318 <CharactersInit+0x378>
  10330c:	fe944703          	lbu	a4,-23(s0)
  103310:	01f00793          	li	a5,31
  103314:	00f71a63          	bne	a4,a5,103328 <CharactersInit+0x388>
  103318:	000017b7          	lui	a5,0x1
  10331c:	ccc78793          	addi	a5,a5,-820 # ccc <_ebss+0x79c>
  103320:	fef42623          	sw	a5,-20(s0)
  103324:	1000006f          	j	103424 <CharactersInit+0x484>
  103328:	fea44783          	lbu	a5,-22(s0)
  10332c:	00078863          	beqz	a5,10333c <CharactersInit+0x39c>
  103330:	fea44703          	lbu	a4,-22(s0)
  103334:	00100793          	li	a5,1
  103338:	00f71863          	bne	a4,a5,103348 <CharactersInit+0x3a8>
  10333c:	11100793          	li	a5,273
  103340:	fef42623          	sw	a5,-20(s0)
  103344:	0e00006f          	j	103424 <CharactersInit+0x484>
  103348:	000017b7          	lui	a5,0x1
  10334c:	aaa78793          	addi	a5,a5,-1366 # aaa <_ebss+0x57a>
  103350:	fef42623          	sw	a5,-20(s0)
  103354:	0d00006f          	j	103424 <CharactersInit+0x484>
  103358:	feb44703          	lbu	a4,-21(s0)
  10335c:	00a00793          	li	a5,10
  103360:	04f71a63          	bne	a4,a5,1033b4 <CharactersInit+0x414>
  103364:	fea44783          	lbu	a5,-22(s0)
  103368:	00078863          	beqz	a5,103378 <CharactersInit+0x3d8>
  10336c:	fea44703          	lbu	a4,-22(s0)
  103370:	00100793          	li	a5,1
  103374:	00f71863          	bne	a4,a5,103384 <CharactersInit+0x3e4>
  103378:	00b00793          	li	a5,11
  10337c:	fef42623          	sw	a5,-20(s0)
  103380:	0a40006f          	j	103424 <CharactersInit+0x484>
  103384:	fe944703          	lbu	a4,-23(s0)
  103388:	01e00793          	li	a5,30
  10338c:	00f70863          	beq	a4,a5,10339c <CharactersInit+0x3fc>
  103390:	fe944703          	lbu	a4,-23(s0)
  103394:	01f00793          	li	a5,31
  103398:	00f71863          	bne	a4,a5,1033a8 <CharactersInit+0x408>
  10339c:	00b00793          	li	a5,11
  1033a0:	fef42623          	sw	a5,-20(s0)
  1033a4:	0800006f          	j	103424 <CharactersInit+0x484>
  1033a8:	00700793          	li	a5,7
  1033ac:	fef42623          	sw	a5,-20(s0)
  1033b0:	0740006f          	j	103424 <CharactersInit+0x484>
  1033b4:	feb44703          	lbu	a4,-21(s0)
  1033b8:	00b00793          	li	a5,11
  1033bc:	00f71a63          	bne	a4,a5,1033d0 <CharactersInit+0x430>
  1033c0:	000017b7          	lui	a5,0x1
  1033c4:	aa078793          	addi	a5,a5,-1376 # aa0 <_ebss+0x570>
  1033c8:	fef42623          	sw	a5,-20(s0)
  1033cc:	0580006f          	j	103424 <CharactersInit+0x484>
  1033d0:	feb44703          	lbu	a4,-21(s0)
  1033d4:	00c00793          	li	a5,12
  1033d8:	00f71863          	bne	a4,a5,1033e8 <CharactersInit+0x448>
  1033dc:	0aa00793          	li	a5,170
  1033e0:	fef42623          	sw	a5,-20(s0)
  1033e4:	0400006f          	j	103424 <CharactersInit+0x484>
  1033e8:	feb44703          	lbu	a4,-21(s0)
  1033ec:	00d00793          	li	a5,13
  1033f0:	00f71a63          	bne	a4,a5,103404 <CharactersInit+0x464>
  1033f4:	000017b7          	lui	a5,0x1
  1033f8:	a0a78793          	addi	a5,a5,-1526 # a0a <_ebss+0x4da>
  1033fc:	fef42623          	sw	a5,-20(s0)
  103400:	0240006f          	j	103424 <CharactersInit+0x484>
  103404:	feb44703          	lbu	a4,-21(s0)
  103408:	00e00793          	li	a5,14
  10340c:	00f71a63          	bne	a4,a5,103420 <CharactersInit+0x480>
  103410:	000017b7          	lui	a5,0x1
  103414:	fff78793          	addi	a5,a5,-1 # fff <_ebss+0xacf>
  103418:	fef42623          	sw	a5,-20(s0)
  10341c:	0080006f          	j	103424 <CharactersInit+0x484>
  103420:	fe042623          	sw	zero,-20(s0)
  103424:	feb44783          	lbu	a5,-21(s0)
  103428:	00479713          	slli	a4,a5,0x4
  10342c:	fea44783          	lbu	a5,-22(s0)
  103430:	00f707b3          	add	a5,a4,a5
  103434:	00479713          	slli	a4,a5,0x4
  103438:	fe944783          	lbu	a5,-23(s0)
  10343c:	00f707b3          	add	a5,a4,a5
  103440:	00279713          	slli	a4,a5,0x2
  103444:	051007b7          	lui	a5,0x5100
  103448:	00f707b3          	add	a5,a4,a5
  10344c:	fec42703          	lw	a4,-20(s0)
  103450:	00e7a023          	sw	a4,0(a5) # 5100000 <_etext+0x4ffb7ac>
  103454:	fe944783          	lbu	a5,-23(s0)
  103458:	00178793          	addi	a5,a5,1
  10345c:	fef404a3          	sb	a5,-23(s0)
  103460:	fe944703          	lbu	a4,-23(s0)
  103464:	01f00793          	li	a5,31
  103468:	b6e7f4e3          	bgeu	a5,a4,102fd0 <CharactersInit+0x30>
  10346c:	fea44783          	lbu	a5,-22(s0)
  103470:	00178793          	addi	a5,a5,1
  103474:	fef40523          	sb	a5,-22(s0)
  103478:	fea44703          	lbu	a4,-22(s0)
  10347c:	01700793          	li	a5,23
  103480:	b4e7f4e3          	bgeu	a5,a4,102fc8 <CharactersInit+0x28>
  103484:	feb44783          	lbu	a5,-21(s0)
  103488:	00178793          	addi	a5,a5,1
  10348c:	fef405a3          	sb	a5,-21(s0)
  103490:	feb44703          	lbu	a4,-21(s0)
  103494:	00f00793          	li	a5,15
  103498:	b2e7f4e3          	bgeu	a5,a4,102fc0 <CharactersInit+0x20>
  10349c:	00000013          	nop
  1034a0:	00000013          	nop
  1034a4:	01c12403          	lw	s0,28(sp)
  1034a8:	02010113          	addi	sp,sp,32
  1034ac:	00008067          	ret

001034b0 <Rotate>:
  1034b0:	fd010113          	addi	sp,sp,-48
  1034b4:	02812623          	sw	s0,44(sp)
  1034b8:	03010413          	addi	s0,sp,48
  1034bc:	fca42e23          	sw	a0,-36(s0)
  1034c0:	fcb42c23          	sw	a1,-40(s0)
  1034c4:	fcc42a23          	sw	a2,-44(s0)
  1034c8:	fe042623          	sw	zero,-20(s0)
  1034cc:	fd442703          	lw	a4,-44(s0)
  1034d0:	41f75793          	srai	a5,a4,0x1f
  1034d4:	01e7d793          	srli	a5,a5,0x1e
  1034d8:	00f70733          	add	a4,a4,a5
  1034dc:	00377713          	andi	a4,a4,3
  1034e0:	40f707b3          	sub	a5,a4,a5
  1034e4:	00300713          	li	a4,3
  1034e8:	08e78063          	beq	a5,a4,103568 <Rotate+0xb8>
  1034ec:	00300713          	li	a4,3
  1034f0:	08f74c63          	blt	a4,a5,103588 <Rotate+0xd8>
  1034f4:	00200713          	li	a4,2
  1034f8:	04e78863          	beq	a5,a4,103548 <Rotate+0x98>
  1034fc:	00200713          	li	a4,2
  103500:	08f74463          	blt	a4,a5,103588 <Rotate+0xd8>
  103504:	00078863          	beqz	a5,103514 <Rotate+0x64>
  103508:	00100713          	li	a4,1
  10350c:	02e78063          	beq	a5,a4,10352c <Rotate+0x7c>
  103510:	0780006f          	j	103588 <Rotate+0xd8>
  103514:	fd842783          	lw	a5,-40(s0)
  103518:	00279793          	slli	a5,a5,0x2
  10351c:	fdc42703          	lw	a4,-36(s0)
  103520:	00f707b3          	add	a5,a4,a5
  103524:	fef42623          	sw	a5,-20(s0)
  103528:	0600006f          	j	103588 <Rotate+0xd8>
  10352c:	fd842783          	lw	a5,-40(s0)
  103530:	00c78713          	addi	a4,a5,12
  103534:	fdc42783          	lw	a5,-36(s0)
  103538:	00279793          	slli	a5,a5,0x2
  10353c:	40f707b3          	sub	a5,a4,a5
  103540:	fef42623          	sw	a5,-20(s0)
  103544:	0440006f          	j	103588 <Rotate+0xd8>
  103548:	fd842783          	lw	a5,-40(s0)
  10354c:	00279793          	slli	a5,a5,0x2
  103550:	00f00713          	li	a4,15
  103554:	40f70733          	sub	a4,a4,a5
  103558:	fdc42783          	lw	a5,-36(s0)
  10355c:	40f707b3          	sub	a5,a4,a5
  103560:	fef42623          	sw	a5,-20(s0)
  103564:	0240006f          	j	103588 <Rotate+0xd8>
  103568:	00300713          	li	a4,3
  10356c:	fd842783          	lw	a5,-40(s0)
  103570:	40f70733          	sub	a4,a4,a5
  103574:	fdc42783          	lw	a5,-36(s0)
  103578:	00279793          	slli	a5,a5,0x2
  10357c:	00f707b3          	add	a5,a4,a5
  103580:	fef42623          	sw	a5,-20(s0)
  103584:	00000013          	nop
  103588:	fec42783          	lw	a5,-20(s0)
  10358c:	00078513          	mv	a0,a5
  103590:	02c12403          	lw	s0,44(sp)
  103594:	03010113          	addi	sp,sp,48
  103598:	00008067          	ret

0010359c <DoesPieceFit>:
  10359c:	fd010113          	addi	sp,sp,-48
  1035a0:	02112623          	sw	ra,44(sp)
  1035a4:	02812423          	sw	s0,40(sp)
  1035a8:	03010413          	addi	s0,sp,48
  1035ac:	fca42e23          	sw	a0,-36(s0)
  1035b0:	fcb42c23          	sw	a1,-40(s0)
  1035b4:	fcc42a23          	sw	a2,-44(s0)
  1035b8:	fcd42823          	sw	a3,-48(s0)
  1035bc:	fe042623          	sw	zero,-20(s0)
  1035c0:	0fc0006f          	j	1036bc <DoesPieceFit+0x120>
  1035c4:	fe042423          	sw	zero,-24(s0)
  1035c8:	0dc0006f          	j	1036a4 <DoesPieceFit+0x108>
  1035cc:	fd842603          	lw	a2,-40(s0)
  1035d0:	fe842583          	lw	a1,-24(s0)
  1035d4:	fec42503          	lw	a0,-20(s0)
  1035d8:	ed9ff0ef          	jal	ra,1034b0 <Rotate>
  1035dc:	fea42223          	sw	a0,-28(s0)
  1035e0:	fd042703          	lw	a4,-48(s0)
  1035e4:	fe842783          	lw	a5,-24(s0)
  1035e8:	00f70733          	add	a4,a4,a5
  1035ec:	00070793          	mv	a5,a4
  1035f0:	00279793          	slli	a5,a5,0x2
  1035f4:	00e787b3          	add	a5,a5,a4
  1035f8:	00379793          	slli	a5,a5,0x3
  1035fc:	00078693          	mv	a3,a5
  103600:	fd442703          	lw	a4,-44(s0)
  103604:	fec42783          	lw	a5,-20(s0)
  103608:	00f707b3          	add	a5,a4,a5
  10360c:	00f687b3          	add	a5,a3,a5
  103610:	fef42023          	sw	a5,-32(s0)
  103614:	fd442703          	lw	a4,-44(s0)
  103618:	fec42783          	lw	a5,-20(s0)
  10361c:	00f707b3          	add	a5,a4,a5
  103620:	0607cc63          	bltz	a5,103698 <DoesPieceFit+0xfc>
  103624:	fd442703          	lw	a4,-44(s0)
  103628:	fec42783          	lw	a5,-20(s0)
  10362c:	00f70733          	add	a4,a4,a5
  103630:	02700793          	li	a5,39
  103634:	06e7c263          	blt	a5,a4,103698 <DoesPieceFit+0xfc>
  103638:	fd042703          	lw	a4,-48(s0)
  10363c:	fe842783          	lw	a5,-24(s0)
  103640:	00f707b3          	add	a5,a4,a5
  103644:	0407ca63          	bltz	a5,103698 <DoesPieceFit+0xfc>
  103648:	fd042703          	lw	a4,-48(s0)
  10364c:	fe842783          	lw	a5,-24(s0)
  103650:	00f70733          	add	a4,a4,a5
  103654:	01d00793          	li	a5,29
  103658:	04e7c063          	blt	a5,a4,103698 <DoesPieceFit+0xfc>
  10365c:	00000713          	li	a4,0
  103660:	fdc42783          	lw	a5,-36(s0)
  103664:	00479793          	slli	a5,a5,0x4
  103668:	00f70733          	add	a4,a4,a5
  10366c:	fe442783          	lw	a5,-28(s0)
  103670:	00f707b3          	add	a5,a4,a5
  103674:	0007c783          	lbu	a5,0(a5)
  103678:	02078063          	beqz	a5,103698 <DoesPieceFit+0xfc>
  10367c:	07c00713          	li	a4,124
  103680:	fe042783          	lw	a5,-32(s0)
  103684:	00f707b3          	add	a5,a4,a5
  103688:	0007c783          	lbu	a5,0(a5)
  10368c:	00078663          	beqz	a5,103698 <DoesPieceFit+0xfc>
  103690:	00000793          	li	a5,0
  103694:	0380006f          	j	1036cc <DoesPieceFit+0x130>
  103698:	fe842783          	lw	a5,-24(s0)
  10369c:	00178793          	addi	a5,a5,1
  1036a0:	fef42423          	sw	a5,-24(s0)
  1036a4:	fe842703          	lw	a4,-24(s0)
  1036a8:	00300793          	li	a5,3
  1036ac:	f2e7d0e3          	bge	a5,a4,1035cc <DoesPieceFit+0x30>
  1036b0:	fec42783          	lw	a5,-20(s0)
  1036b4:	00178793          	addi	a5,a5,1
  1036b8:	fef42623          	sw	a5,-20(s0)
  1036bc:	fec42703          	lw	a4,-20(s0)
  1036c0:	00300793          	li	a5,3
  1036c4:	f0e7d0e3          	bge	a5,a4,1035c4 <DoesPieceFit+0x28>
  1036c8:	00100793          	li	a5,1
  1036cc:	00078513          	mv	a0,a5
  1036d0:	02c12083          	lw	ra,44(sp)
  1036d4:	02812403          	lw	s0,40(sp)
  1036d8:	03010113          	addi	sp,sp,48
  1036dc:	00008067          	ret

001036e0 <DrawDigit>:
  1036e0:	fd010113          	addi	sp,sp,-48
  1036e4:	02812623          	sw	s0,44(sp)
  1036e8:	03010413          	addi	s0,sp,48
  1036ec:	fca42e23          	sw	a0,-36(s0)
  1036f0:	fcb42c23          	sw	a1,-40(s0)
  1036f4:	fcc42a23          	sw	a2,-44(s0)
  1036f8:	fd442783          	lw	a5,-44(s0)
  1036fc:	fef407a3          	sb	a5,-17(s0)
  103700:	7000006f          	j	103e00 <DrawDigit+0x720>
  103704:	fd842783          	lw	a5,-40(s0)
  103708:	fef40723          	sb	a5,-18(s0)
  10370c:	6d80006f          	j	103de4 <DrawDigit+0x704>
  103710:	fdc42703          	lw	a4,-36(s0)
  103714:	00900793          	li	a5,9
  103718:	6ae7ee63          	bltu	a5,a4,103dd4 <DrawDigit+0x6f4>
  10371c:	fdc42783          	lw	a5,-36(s0)
  103720:	00279713          	slli	a4,a5,0x2
  103724:	001047b7          	lui	a5,0x104
  103728:	7f878793          	addi	a5,a5,2040 # 1047f8 <print_hex+0x7c>
  10372c:	00f707b3          	add	a5,a4,a5
  103730:	0007a783          	lw	a5,0(a5)
  103734:	00078067          	jr	a5
  103738:	fee44783          	lbu	a5,-18(s0)
  10373c:	fd842703          	lw	a4,-40(s0)
  103740:	02f70863          	beq	a4,a5,103770 <DrawDigit+0x90>
  103744:	fee44703          	lbu	a4,-18(s0)
  103748:	fd842783          	lw	a5,-40(s0)
  10374c:	00278793          	addi	a5,a5,2
  103750:	02f70063          	beq	a4,a5,103770 <DrawDigit+0x90>
  103754:	fef44783          	lbu	a5,-17(s0)
  103758:	fd442703          	lw	a4,-44(s0)
  10375c:	00f70a63          	beq	a4,a5,103770 <DrawDigit+0x90>
  103760:	fef44703          	lbu	a4,-17(s0)
  103764:	fd442783          	lw	a5,-44(s0)
  103768:	00478793          	addi	a5,a5,4
  10376c:	02f71a63          	bne	a4,a5,1037a0 <DrawDigit+0xc0>
  103770:	fef44703          	lbu	a4,-17(s0)
  103774:	00070793          	mv	a5,a4
  103778:	00279793          	slli	a5,a5,0x2
  10377c:	00e787b3          	add	a5,a5,a4
  103780:	00379793          	slli	a5,a5,0x3
  103784:	00078713          	mv	a4,a5
  103788:	fee44783          	lbu	a5,-18(s0)
  10378c:	00f707b3          	add	a5,a4,a5
  103790:	07c00713          	li	a4,124
  103794:	00f707b3          	add	a5,a4,a5
  103798:	00078023          	sb	zero,0(a5)
  10379c:	63c0006f          	j	103dd8 <DrawDigit+0x6f8>
  1037a0:	fef44703          	lbu	a4,-17(s0)
  1037a4:	00070793          	mv	a5,a4
  1037a8:	00279793          	slli	a5,a5,0x2
  1037ac:	00e787b3          	add	a5,a5,a4
  1037b0:	00379793          	slli	a5,a5,0x3
  1037b4:	00078713          	mv	a4,a5
  1037b8:	fee44783          	lbu	a5,-18(s0)
  1037bc:	00f707b3          	add	a5,a4,a5
  1037c0:	07c00713          	li	a4,124
  1037c4:	00f707b3          	add	a5,a4,a5
  1037c8:	00900713          	li	a4,9
  1037cc:	00e78023          	sb	a4,0(a5)
  1037d0:	6080006f          	j	103dd8 <DrawDigit+0x6f8>
  1037d4:	fee44703          	lbu	a4,-18(s0)
  1037d8:	fd842783          	lw	a5,-40(s0)
  1037dc:	00278793          	addi	a5,a5,2
  1037e0:	00f70a63          	beq	a4,a5,1037f4 <DrawDigit+0x114>
  1037e4:	fef44703          	lbu	a4,-17(s0)
  1037e8:	fd442783          	lw	a5,-44(s0)
  1037ec:	00178793          	addi	a5,a5,1
  1037f0:	02f71a63          	bne	a4,a5,103824 <DrawDigit+0x144>
  1037f4:	fef44703          	lbu	a4,-17(s0)
  1037f8:	00070793          	mv	a5,a4
  1037fc:	00279793          	slli	a5,a5,0x2
  103800:	00e787b3          	add	a5,a5,a4
  103804:	00379793          	slli	a5,a5,0x3
  103808:	00078713          	mv	a4,a5
  10380c:	fee44783          	lbu	a5,-18(s0)
  103810:	00f707b3          	add	a5,a4,a5
  103814:	07c00713          	li	a4,124
  103818:	00f707b3          	add	a5,a4,a5
  10381c:	00078023          	sb	zero,0(a5)
  103820:	5b80006f          	j	103dd8 <DrawDigit+0x6f8>
  103824:	fef44703          	lbu	a4,-17(s0)
  103828:	00070793          	mv	a5,a4
  10382c:	00279793          	slli	a5,a5,0x2
  103830:	00e787b3          	add	a5,a5,a4
  103834:	00379793          	slli	a5,a5,0x3
  103838:	00078713          	mv	a4,a5
  10383c:	fee44783          	lbu	a5,-18(s0)
  103840:	00f707b3          	add	a5,a4,a5
  103844:	07c00713          	li	a4,124
  103848:	00f707b3          	add	a5,a4,a5
  10384c:	00900713          	li	a4,9
  103850:	00e78023          	sb	a4,0(a5)
  103854:	5840006f          	j	103dd8 <DrawDigit+0x6f8>
  103858:	fef44783          	lbu	a5,-17(s0)
  10385c:	fd442703          	lw	a4,-44(s0)
  103860:	06f70063          	beq	a4,a5,1038c0 <DrawDigit+0x1e0>
  103864:	fef44703          	lbu	a4,-17(s0)
  103868:	fd442783          	lw	a5,-44(s0)
  10386c:	00278793          	addi	a5,a5,2
  103870:	04f70863          	beq	a4,a5,1038c0 <DrawDigit+0x1e0>
  103874:	fef44703          	lbu	a4,-17(s0)
  103878:	fd442783          	lw	a5,-44(s0)
  10387c:	00478793          	addi	a5,a5,4
  103880:	04f70063          	beq	a4,a5,1038c0 <DrawDigit+0x1e0>
  103884:	fef44703          	lbu	a4,-17(s0)
  103888:	fd442783          	lw	a5,-44(s0)
  10388c:	00178793          	addi	a5,a5,1
  103890:	00f71a63          	bne	a4,a5,1038a4 <DrawDigit+0x1c4>
  103894:	fee44703          	lbu	a4,-18(s0)
  103898:	fd842783          	lw	a5,-40(s0)
  10389c:	00278793          	addi	a5,a5,2
  1038a0:	02f70063          	beq	a4,a5,1038c0 <DrawDigit+0x1e0>
  1038a4:	fef44703          	lbu	a4,-17(s0)
  1038a8:	fd442783          	lw	a5,-44(s0)
  1038ac:	00378793          	addi	a5,a5,3
  1038b0:	04f71063          	bne	a4,a5,1038f0 <DrawDigit+0x210>
  1038b4:	fee44783          	lbu	a5,-18(s0)
  1038b8:	fd842703          	lw	a4,-40(s0)
  1038bc:	02f71a63          	bne	a4,a5,1038f0 <DrawDigit+0x210>
  1038c0:	fef44703          	lbu	a4,-17(s0)
  1038c4:	00070793          	mv	a5,a4
  1038c8:	00279793          	slli	a5,a5,0x2
  1038cc:	00e787b3          	add	a5,a5,a4
  1038d0:	00379793          	slli	a5,a5,0x3
  1038d4:	00078713          	mv	a4,a5
  1038d8:	fee44783          	lbu	a5,-18(s0)
  1038dc:	00f707b3          	add	a5,a4,a5
  1038e0:	07c00713          	li	a4,124
  1038e4:	00f707b3          	add	a5,a4,a5
  1038e8:	00078023          	sb	zero,0(a5)
  1038ec:	4ec0006f          	j	103dd8 <DrawDigit+0x6f8>
  1038f0:	fef44703          	lbu	a4,-17(s0)
  1038f4:	00070793          	mv	a5,a4
  1038f8:	00279793          	slli	a5,a5,0x2
  1038fc:	00e787b3          	add	a5,a5,a4
  103900:	00379793          	slli	a5,a5,0x3
  103904:	00078713          	mv	a4,a5
  103908:	fee44783          	lbu	a5,-18(s0)
  10390c:	00f707b3          	add	a5,a4,a5
  103910:	07c00713          	li	a4,124
  103914:	00f707b3          	add	a5,a4,a5
  103918:	00900713          	li	a4,9
  10391c:	00e78023          	sb	a4,0(a5)
  103920:	4b80006f          	j	103dd8 <DrawDigit+0x6f8>
  103924:	fee44703          	lbu	a4,-18(s0)
  103928:	fd842783          	lw	a5,-40(s0)
  10392c:	00278793          	addi	a5,a5,2
  103930:	02f70863          	beq	a4,a5,103960 <DrawDigit+0x280>
  103934:	fef44783          	lbu	a5,-17(s0)
  103938:	fd442703          	lw	a4,-44(s0)
  10393c:	02f70263          	beq	a4,a5,103960 <DrawDigit+0x280>
  103940:	fef44703          	lbu	a4,-17(s0)
  103944:	fd442783          	lw	a5,-44(s0)
  103948:	00278793          	addi	a5,a5,2
  10394c:	00f70a63          	beq	a4,a5,103960 <DrawDigit+0x280>
  103950:	fef44703          	lbu	a4,-17(s0)
  103954:	fd442783          	lw	a5,-44(s0)
  103958:	00478793          	addi	a5,a5,4
  10395c:	02f71a63          	bne	a4,a5,103990 <DrawDigit+0x2b0>
  103960:	fef44703          	lbu	a4,-17(s0)
  103964:	00070793          	mv	a5,a4
  103968:	00279793          	slli	a5,a5,0x2
  10396c:	00e787b3          	add	a5,a5,a4
  103970:	00379793          	slli	a5,a5,0x3
  103974:	00078713          	mv	a4,a5
  103978:	fee44783          	lbu	a5,-18(s0)
  10397c:	00f707b3          	add	a5,a4,a5
  103980:	07c00713          	li	a4,124
  103984:	00f707b3          	add	a5,a4,a5
  103988:	00078023          	sb	zero,0(a5)
  10398c:	44c0006f          	j	103dd8 <DrawDigit+0x6f8>
  103990:	fef44703          	lbu	a4,-17(s0)
  103994:	00070793          	mv	a5,a4
  103998:	00279793          	slli	a5,a5,0x2
  10399c:	00e787b3          	add	a5,a5,a4
  1039a0:	00379793          	slli	a5,a5,0x3
  1039a4:	00078713          	mv	a4,a5
  1039a8:	fee44783          	lbu	a5,-18(s0)
  1039ac:	00f707b3          	add	a5,a4,a5
  1039b0:	07c00713          	li	a4,124
  1039b4:	00f707b3          	add	a5,a4,a5
  1039b8:	00900713          	li	a4,9
  1039bc:	00e78023          	sb	a4,0(a5)
  1039c0:	4180006f          	j	103dd8 <DrawDigit+0x6f8>
  1039c4:	fee44703          	lbu	a4,-18(s0)
  1039c8:	fd842783          	lw	a5,-40(s0)
  1039cc:	00278793          	addi	a5,a5,2
  1039d0:	02f70863          	beq	a4,a5,103a00 <DrawDigit+0x320>
  1039d4:	fef44703          	lbu	a4,-17(s0)
  1039d8:	fd442783          	lw	a5,-44(s0)
  1039dc:	00278793          	addi	a5,a5,2
  1039e0:	02f70063          	beq	a4,a5,103a00 <DrawDigit+0x320>
  1039e4:	fef44703          	lbu	a4,-17(s0)
  1039e8:	fd442783          	lw	a5,-44(s0)
  1039ec:	00278793          	addi	a5,a5,2
  1039f0:	04e7c063          	blt	a5,a4,103a30 <DrawDigit+0x350>
  1039f4:	fee44783          	lbu	a5,-18(s0)
  1039f8:	fd842703          	lw	a4,-40(s0)
  1039fc:	02f71a63          	bne	a4,a5,103a30 <DrawDigit+0x350>
  103a00:	fef44703          	lbu	a4,-17(s0)
  103a04:	00070793          	mv	a5,a4
  103a08:	00279793          	slli	a5,a5,0x2
  103a0c:	00e787b3          	add	a5,a5,a4
  103a10:	00379793          	slli	a5,a5,0x3
  103a14:	00078713          	mv	a4,a5
  103a18:	fee44783          	lbu	a5,-18(s0)
  103a1c:	00f707b3          	add	a5,a4,a5
  103a20:	07c00713          	li	a4,124
  103a24:	00f707b3          	add	a5,a4,a5
  103a28:	00078023          	sb	zero,0(a5)
  103a2c:	3ac0006f          	j	103dd8 <DrawDigit+0x6f8>
  103a30:	fef44703          	lbu	a4,-17(s0)
  103a34:	00070793          	mv	a5,a4
  103a38:	00279793          	slli	a5,a5,0x2
  103a3c:	00e787b3          	add	a5,a5,a4
  103a40:	00379793          	slli	a5,a5,0x3
  103a44:	00078713          	mv	a4,a5
  103a48:	fee44783          	lbu	a5,-18(s0)
  103a4c:	00f707b3          	add	a5,a4,a5
  103a50:	07c00713          	li	a4,124
  103a54:	00f707b3          	add	a5,a4,a5
  103a58:	00900713          	li	a4,9
  103a5c:	00e78023          	sb	a4,0(a5)
  103a60:	3780006f          	j	103dd8 <DrawDigit+0x6f8>
  103a64:	fef44783          	lbu	a5,-17(s0)
  103a68:	fd442703          	lw	a4,-44(s0)
  103a6c:	06f70063          	beq	a4,a5,103acc <DrawDigit+0x3ec>
  103a70:	fef44703          	lbu	a4,-17(s0)
  103a74:	fd442783          	lw	a5,-44(s0)
  103a78:	00278793          	addi	a5,a5,2
  103a7c:	04f70863          	beq	a4,a5,103acc <DrawDigit+0x3ec>
  103a80:	fef44703          	lbu	a4,-17(s0)
  103a84:	fd442783          	lw	a5,-44(s0)
  103a88:	00478793          	addi	a5,a5,4
  103a8c:	04f70063          	beq	a4,a5,103acc <DrawDigit+0x3ec>
  103a90:	fef44703          	lbu	a4,-17(s0)
  103a94:	fd442783          	lw	a5,-44(s0)
  103a98:	00178793          	addi	a5,a5,1
  103a9c:	00f71863          	bne	a4,a5,103aac <DrawDigit+0x3cc>
  103aa0:	fee44783          	lbu	a5,-18(s0)
  103aa4:	fd842703          	lw	a4,-40(s0)
  103aa8:	02f70263          	beq	a4,a5,103acc <DrawDigit+0x3ec>
  103aac:	fef44703          	lbu	a4,-17(s0)
  103ab0:	fd442783          	lw	a5,-44(s0)
  103ab4:	00378793          	addi	a5,a5,3
  103ab8:	04f71263          	bne	a4,a5,103afc <DrawDigit+0x41c>
  103abc:	fee44703          	lbu	a4,-18(s0)
  103ac0:	fd842783          	lw	a5,-40(s0)
  103ac4:	00278793          	addi	a5,a5,2
  103ac8:	02f71a63          	bne	a4,a5,103afc <DrawDigit+0x41c>
  103acc:	fef44703          	lbu	a4,-17(s0)
  103ad0:	00070793          	mv	a5,a4
  103ad4:	00279793          	slli	a5,a5,0x2
  103ad8:	00e787b3          	add	a5,a5,a4
  103adc:	00379793          	slli	a5,a5,0x3
  103ae0:	00078713          	mv	a4,a5
  103ae4:	fee44783          	lbu	a5,-18(s0)
  103ae8:	00f707b3          	add	a5,a4,a5
  103aec:	07c00713          	li	a4,124
  103af0:	00f707b3          	add	a5,a4,a5
  103af4:	00078023          	sb	zero,0(a5)
  103af8:	2e00006f          	j	103dd8 <DrawDigit+0x6f8>
  103afc:	fef44703          	lbu	a4,-17(s0)
  103b00:	00070793          	mv	a5,a4
  103b04:	00279793          	slli	a5,a5,0x2
  103b08:	00e787b3          	add	a5,a5,a4
  103b0c:	00379793          	slli	a5,a5,0x3
  103b10:	00078713          	mv	a4,a5
  103b14:	fee44783          	lbu	a5,-18(s0)
  103b18:	00f707b3          	add	a5,a4,a5
  103b1c:	07c00713          	li	a4,124
  103b20:	00f707b3          	add	a5,a4,a5
  103b24:	00900713          	li	a4,9
  103b28:	00e78023          	sb	a4,0(a5)
  103b2c:	2ac0006f          	j	103dd8 <DrawDigit+0x6f8>
  103b30:	fee44783          	lbu	a5,-18(s0)
  103b34:	fd842703          	lw	a4,-40(s0)
  103b38:	04f70863          	beq	a4,a5,103b88 <DrawDigit+0x4a8>
  103b3c:	fef44783          	lbu	a5,-17(s0)
  103b40:	fd442703          	lw	a4,-44(s0)
  103b44:	04f70263          	beq	a4,a5,103b88 <DrawDigit+0x4a8>
  103b48:	fef44703          	lbu	a4,-17(s0)
  103b4c:	fd442783          	lw	a5,-44(s0)
  103b50:	00278793          	addi	a5,a5,2
  103b54:	02f70a63          	beq	a4,a5,103b88 <DrawDigit+0x4a8>
  103b58:	fef44703          	lbu	a4,-17(s0)
  103b5c:	fd442783          	lw	a5,-44(s0)
  103b60:	00478793          	addi	a5,a5,4
  103b64:	02f70263          	beq	a4,a5,103b88 <DrawDigit+0x4a8>
  103b68:	fef44703          	lbu	a4,-17(s0)
  103b6c:	fd442783          	lw	a5,-44(s0)
  103b70:	00378793          	addi	a5,a5,3
  103b74:	04f71263          	bne	a4,a5,103bb8 <DrawDigit+0x4d8>
  103b78:	fee44703          	lbu	a4,-18(s0)
  103b7c:	fd842783          	lw	a5,-40(s0)
  103b80:	00278793          	addi	a5,a5,2
  103b84:	02f71a63          	bne	a4,a5,103bb8 <DrawDigit+0x4d8>
  103b88:	fef44703          	lbu	a4,-17(s0)
  103b8c:	00070793          	mv	a5,a4
  103b90:	00279793          	slli	a5,a5,0x2
  103b94:	00e787b3          	add	a5,a5,a4
  103b98:	00379793          	slli	a5,a5,0x3
  103b9c:	00078713          	mv	a4,a5
  103ba0:	fee44783          	lbu	a5,-18(s0)
  103ba4:	00f707b3          	add	a5,a4,a5
  103ba8:	07c00713          	li	a4,124
  103bac:	00f707b3          	add	a5,a4,a5
  103bb0:	00078023          	sb	zero,0(a5)
  103bb4:	2240006f          	j	103dd8 <DrawDigit+0x6f8>
  103bb8:	fef44703          	lbu	a4,-17(s0)
  103bbc:	00070793          	mv	a5,a4
  103bc0:	00279793          	slli	a5,a5,0x2
  103bc4:	00e787b3          	add	a5,a5,a4
  103bc8:	00379793          	slli	a5,a5,0x3
  103bcc:	00078713          	mv	a4,a5
  103bd0:	fee44783          	lbu	a5,-18(s0)
  103bd4:	00f707b3          	add	a5,a4,a5
  103bd8:	07c00713          	li	a4,124
  103bdc:	00f707b3          	add	a5,a4,a5
  103be0:	00900713          	li	a4,9
  103be4:	00e78023          	sb	a4,0(a5)
  103be8:	1f00006f          	j	103dd8 <DrawDigit+0x6f8>
  103bec:	fee44703          	lbu	a4,-18(s0)
  103bf0:	fd842783          	lw	a5,-40(s0)
  103bf4:	00278793          	addi	a5,a5,2
  103bf8:	00f70863          	beq	a4,a5,103c08 <DrawDigit+0x528>
  103bfc:	fef44783          	lbu	a5,-17(s0)
  103c00:	fd442703          	lw	a4,-44(s0)
  103c04:	02f71a63          	bne	a4,a5,103c38 <DrawDigit+0x558>
  103c08:	fef44703          	lbu	a4,-17(s0)
  103c0c:	00070793          	mv	a5,a4
  103c10:	00279793          	slli	a5,a5,0x2
  103c14:	00e787b3          	add	a5,a5,a4
  103c18:	00379793          	slli	a5,a5,0x3
  103c1c:	00078713          	mv	a4,a5
  103c20:	fee44783          	lbu	a5,-18(s0)
  103c24:	00f707b3          	add	a5,a4,a5
  103c28:	07c00713          	li	a4,124
  103c2c:	00f707b3          	add	a5,a4,a5
  103c30:	00078023          	sb	zero,0(a5)
  103c34:	1a40006f          	j	103dd8 <DrawDigit+0x6f8>
  103c38:	fef44703          	lbu	a4,-17(s0)
  103c3c:	00070793          	mv	a5,a4
  103c40:	00279793          	slli	a5,a5,0x2
  103c44:	00e787b3          	add	a5,a5,a4
  103c48:	00379793          	slli	a5,a5,0x3
  103c4c:	00078713          	mv	a4,a5
  103c50:	fee44783          	lbu	a5,-18(s0)
  103c54:	00f707b3          	add	a5,a4,a5
  103c58:	07c00713          	li	a4,124
  103c5c:	00f707b3          	add	a5,a4,a5
  103c60:	00900713          	li	a4,9
  103c64:	00e78023          	sb	a4,0(a5)
  103c68:	1700006f          	j	103dd8 <DrawDigit+0x6f8>
  103c6c:	fee44783          	lbu	a5,-18(s0)
  103c70:	fd842703          	lw	a4,-40(s0)
  103c74:	04f70063          	beq	a4,a5,103cb4 <DrawDigit+0x5d4>
  103c78:	fee44703          	lbu	a4,-18(s0)
  103c7c:	fd842783          	lw	a5,-40(s0)
  103c80:	00278793          	addi	a5,a5,2
  103c84:	02f70863          	beq	a4,a5,103cb4 <DrawDigit+0x5d4>
  103c88:	fef44783          	lbu	a5,-17(s0)
  103c8c:	fd442703          	lw	a4,-44(s0)
  103c90:	02f70263          	beq	a4,a5,103cb4 <DrawDigit+0x5d4>
  103c94:	fef44703          	lbu	a4,-17(s0)
  103c98:	fd442783          	lw	a5,-44(s0)
  103c9c:	00278793          	addi	a5,a5,2
  103ca0:	00f70a63          	beq	a4,a5,103cb4 <DrawDigit+0x5d4>
  103ca4:	fef44703          	lbu	a4,-17(s0)
  103ca8:	fd442783          	lw	a5,-44(s0)
  103cac:	00478793          	addi	a5,a5,4
  103cb0:	02f71a63          	bne	a4,a5,103ce4 <DrawDigit+0x604>
  103cb4:	fef44703          	lbu	a4,-17(s0)
  103cb8:	00070793          	mv	a5,a4
  103cbc:	00279793          	slli	a5,a5,0x2
  103cc0:	00e787b3          	add	a5,a5,a4
  103cc4:	00379793          	slli	a5,a5,0x3
  103cc8:	00078713          	mv	a4,a5
  103ccc:	fee44783          	lbu	a5,-18(s0)
  103cd0:	00f707b3          	add	a5,a4,a5
  103cd4:	07c00713          	li	a4,124
  103cd8:	00f707b3          	add	a5,a4,a5
  103cdc:	00078023          	sb	zero,0(a5)
  103ce0:	0f80006f          	j	103dd8 <DrawDigit+0x6f8>
  103ce4:	fef44703          	lbu	a4,-17(s0)
  103ce8:	00070793          	mv	a5,a4
  103cec:	00279793          	slli	a5,a5,0x2
  103cf0:	00e787b3          	add	a5,a5,a4
  103cf4:	00379793          	slli	a5,a5,0x3
  103cf8:	00078713          	mv	a4,a5
  103cfc:	fee44783          	lbu	a5,-18(s0)
  103d00:	00f707b3          	add	a5,a4,a5
  103d04:	07c00713          	li	a4,124
  103d08:	00f707b3          	add	a5,a4,a5
  103d0c:	00900713          	li	a4,9
  103d10:	00e78023          	sb	a4,0(a5)
  103d14:	0c40006f          	j	103dd8 <DrawDigit+0x6f8>
  103d18:	fee44703          	lbu	a4,-18(s0)
  103d1c:	fd842783          	lw	a5,-40(s0)
  103d20:	00278793          	addi	a5,a5,2
  103d24:	04f70663          	beq	a4,a5,103d70 <DrawDigit+0x690>
  103d28:	fef44783          	lbu	a5,-17(s0)
  103d2c:	fd442703          	lw	a4,-44(s0)
  103d30:	04f70063          	beq	a4,a5,103d70 <DrawDigit+0x690>
  103d34:	fef44703          	lbu	a4,-17(s0)
  103d38:	fd442783          	lw	a5,-44(s0)
  103d3c:	00278793          	addi	a5,a5,2
  103d40:	02f70863          	beq	a4,a5,103d70 <DrawDigit+0x690>
  103d44:	fef44703          	lbu	a4,-17(s0)
  103d48:	fd442783          	lw	a5,-44(s0)
  103d4c:	00478793          	addi	a5,a5,4
  103d50:	02f70063          	beq	a4,a5,103d70 <DrawDigit+0x690>
  103d54:	fef44703          	lbu	a4,-17(s0)
  103d58:	fd442783          	lw	a5,-44(s0)
  103d5c:	00178793          	addi	a5,a5,1
  103d60:	04f71063          	bne	a4,a5,103da0 <DrawDigit+0x6c0>
  103d64:	fee44783          	lbu	a5,-18(s0)
  103d68:	fd842703          	lw	a4,-40(s0)
  103d6c:	02f71a63          	bne	a4,a5,103da0 <DrawDigit+0x6c0>
  103d70:	fef44703          	lbu	a4,-17(s0)
  103d74:	00070793          	mv	a5,a4
  103d78:	00279793          	slli	a5,a5,0x2
  103d7c:	00e787b3          	add	a5,a5,a4
  103d80:	00379793          	slli	a5,a5,0x3
  103d84:	00078713          	mv	a4,a5
  103d88:	fee44783          	lbu	a5,-18(s0)
  103d8c:	00f707b3          	add	a5,a4,a5
  103d90:	07c00713          	li	a4,124
  103d94:	00f707b3          	add	a5,a4,a5
  103d98:	00078023          	sb	zero,0(a5)
  103d9c:	03c0006f          	j	103dd8 <DrawDigit+0x6f8>
  103da0:	fef44703          	lbu	a4,-17(s0)
  103da4:	00070793          	mv	a5,a4
  103da8:	00279793          	slli	a5,a5,0x2
  103dac:	00e787b3          	add	a5,a5,a4
  103db0:	00379793          	slli	a5,a5,0x3
  103db4:	00078713          	mv	a4,a5
  103db8:	fee44783          	lbu	a5,-18(s0)
  103dbc:	00f707b3          	add	a5,a4,a5
  103dc0:	07c00713          	li	a4,124
  103dc4:	00f707b3          	add	a5,a4,a5
  103dc8:	00900713          	li	a4,9
  103dcc:	00e78023          	sb	a4,0(a5)
  103dd0:	0080006f          	j	103dd8 <DrawDigit+0x6f8>
  103dd4:	00000013          	nop
  103dd8:	fee44783          	lbu	a5,-18(s0)
  103ddc:	00178793          	addi	a5,a5,1
  103de0:	fef40723          	sb	a5,-18(s0)
  103de4:	fd842783          	lw	a5,-40(s0)
  103de8:	00278713          	addi	a4,a5,2
  103dec:	fee44783          	lbu	a5,-18(s0)
  103df0:	92f750e3          	bge	a4,a5,103710 <DrawDigit+0x30>
  103df4:	fef44783          	lbu	a5,-17(s0)
  103df8:	00178793          	addi	a5,a5,1
  103dfc:	fef407a3          	sb	a5,-17(s0)
  103e00:	fd442783          	lw	a5,-44(s0)
  103e04:	00478713          	addi	a4,a5,4
  103e08:	fef44783          	lbu	a5,-17(s0)
  103e0c:	8ef75ce3          	bge	a4,a5,103704 <DrawDigit+0x24>
  103e10:	00000013          	nop
  103e14:	00000013          	nop
  103e18:	02c12403          	lw	s0,44(sp)
  103e1c:	03010113          	addi	sp,sp,48
  103e20:	00008067          	ret

00103e24 <DisplayScore>:
  103e24:	fc010113          	addi	sp,sp,-64
  103e28:	02112e23          	sw	ra,60(sp)
  103e2c:	02812c23          	sw	s0,56(sp)
  103e30:	04010413          	addi	s0,sp,64
  103e34:	fca42623          	sw	a0,-52(s0)
  103e38:	fcb42423          	sw	a1,-56(s0)
  103e3c:	fcc42223          	sw	a2,-60(s0)
  103e40:	fc042e23          	sw	zero,-36(s0)
  103e44:	fe042023          	sw	zero,-32(s0)
  103e48:	fe042223          	sw	zero,-28(s0)
  103e4c:	fe042423          	sw	zero,-24(s0)
  103e50:	fe042623          	sw	zero,-20(s0)
  103e54:	03c0006f          	j	103e90 <DisplayScore+0x6c>
  103e58:	fec42783          	lw	a5,-20(s0)
  103e5c:	00178713          	addi	a4,a5,1
  103e60:	fee42623          	sw	a4,-20(s0)
  103e64:	fcc42683          	lw	a3,-52(s0)
  103e68:	00a00713          	li	a4,10
  103e6c:	02e6e733          	rem	a4,a3,a4
  103e70:	00279793          	slli	a5,a5,0x2
  103e74:	ff040693          	addi	a3,s0,-16
  103e78:	00f687b3          	add	a5,a3,a5
  103e7c:	fee7a623          	sw	a4,-20(a5)
  103e80:	fcc42703          	lw	a4,-52(s0)
  103e84:	00a00793          	li	a5,10
  103e88:	02f747b3          	div	a5,a4,a5
  103e8c:	fcf42623          	sw	a5,-52(s0)
  103e90:	fcc42783          	lw	a5,-52(s0)
  103e94:	fc0792e3          	bnez	a5,103e58 <DisplayScore+0x34>
  103e98:	00300793          	li	a5,3
  103e9c:	fef42623          	sw	a5,-20(s0)
  103ea0:	04c0006f          	j	103eec <DisplayScore+0xc8>
  103ea4:	fec42783          	lw	a5,-20(s0)
  103ea8:	00279793          	slli	a5,a5,0x2
  103eac:	ff040713          	addi	a4,s0,-16
  103eb0:	00f707b3          	add	a5,a4,a5
  103eb4:	fec7a683          	lw	a3,-20(a5)
  103eb8:	00300713          	li	a4,3
  103ebc:	fec42783          	lw	a5,-20(s0)
  103ec0:	40f707b3          	sub	a5,a4,a5
  103ec4:	00279713          	slli	a4,a5,0x2
  103ec8:	fc842783          	lw	a5,-56(s0)
  103ecc:	00f707b3          	add	a5,a4,a5
  103ed0:	fc442603          	lw	a2,-60(s0)
  103ed4:	00078593          	mv	a1,a5
  103ed8:	00068513          	mv	a0,a3
  103edc:	805ff0ef          	jal	ra,1036e0 <DrawDigit>
  103ee0:	fec42783          	lw	a5,-20(s0)
  103ee4:	fff78793          	addi	a5,a5,-1
  103ee8:	fef42623          	sw	a5,-20(s0)
  103eec:	fec42783          	lw	a5,-20(s0)
  103ef0:	fa07dae3          	bgez	a5,103ea4 <DisplayScore+0x80>
  103ef4:	00000013          	nop
  103ef8:	00000013          	nop
  103efc:	03c12083          	lw	ra,60(sp)
  103f00:	03812403          	lw	s0,56(sp)
  103f04:	04010113          	addi	sp,sp,64
  103f08:	00008067          	ret

00103f0c <WriteScore>:
  103f0c:	fd010113          	addi	sp,sp,-48
  103f10:	02112623          	sw	ra,44(sp)
  103f14:	02812423          	sw	s0,40(sp)
  103f18:	03010413          	addi	s0,sp,48
  103f1c:	fca42e23          	sw	a0,-36(s0)
  103f20:	01800793          	li	a5,24
  103f24:	fef407a3          	sb	a5,-17(s0)
  103f28:	4600006f          	j	104388 <WriteScore+0x47c>
  103f2c:	00300793          	li	a5,3
  103f30:	fef40723          	sb	a5,-18(s0)
  103f34:	43c0006f          	j	104370 <WriteScore+0x464>
  103f38:	fee44703          	lbu	a4,-18(s0)
  103f3c:	00300793          	li	a5,3
  103f40:	00f70863          	beq	a4,a5,103f50 <WriteScore+0x44>
  103f44:	fee44703          	lbu	a4,-18(s0)
  103f48:	00400793          	li	a5,4
  103f4c:	0af71e63          	bne	a4,a5,104008 <WriteScore+0xfc>
  103f50:	fef44703          	lbu	a4,-17(s0)
  103f54:	01800793          	li	a5,24
  103f58:	04f70663          	beq	a4,a5,103fa4 <WriteScore+0x98>
  103f5c:	fef44703          	lbu	a4,-17(s0)
  103f60:	01a00793          	li	a5,26
  103f64:	04f70063          	beq	a4,a5,103fa4 <WriteScore+0x98>
  103f68:	fef44703          	lbu	a4,-17(s0)
  103f6c:	01c00793          	li	a5,28
  103f70:	02f70a63          	beq	a4,a5,103fa4 <WriteScore+0x98>
  103f74:	fee44703          	lbu	a4,-18(s0)
  103f78:	00300793          	li	a5,3
  103f7c:	00f71863          	bne	a4,a5,103f8c <WriteScore+0x80>
  103f80:	fef44703          	lbu	a4,-17(s0)
  103f84:	01900793          	li	a5,25
  103f88:	00f70e63          	beq	a4,a5,103fa4 <WriteScore+0x98>
  103f8c:	fee44703          	lbu	a4,-18(s0)
  103f90:	00400793          	li	a5,4
  103f94:	04f71063          	bne	a4,a5,103fd4 <WriteScore+0xc8>
  103f98:	fef44703          	lbu	a4,-17(s0)
  103f9c:	01b00793          	li	a5,27
  103fa0:	02f71a63          	bne	a4,a5,103fd4 <WriteScore+0xc8>
  103fa4:	fef44703          	lbu	a4,-17(s0)
  103fa8:	00070793          	mv	a5,a4
  103fac:	00279793          	slli	a5,a5,0x2
  103fb0:	00e787b3          	add	a5,a5,a4
  103fb4:	00379793          	slli	a5,a5,0x3
  103fb8:	00078713          	mv	a4,a5
  103fbc:	fee44783          	lbu	a5,-18(s0)
  103fc0:	00f707b3          	add	a5,a4,a5
  103fc4:	07c00713          	li	a4,124
  103fc8:	00f707b3          	add	a5,a4,a5
  103fcc:	00078023          	sb	zero,0(a5)
  103fd0:	3940006f          	j	104364 <WriteScore+0x458>
  103fd4:	fef44703          	lbu	a4,-17(s0)
  103fd8:	00070793          	mv	a5,a4
  103fdc:	00279793          	slli	a5,a5,0x2
  103fe0:	00e787b3          	add	a5,a5,a4
  103fe4:	00379793          	slli	a5,a5,0x3
  103fe8:	00078713          	mv	a4,a5
  103fec:	fee44783          	lbu	a5,-18(s0)
  103ff0:	00f707b3          	add	a5,a4,a5
  103ff4:	07c00713          	li	a4,124
  103ff8:	00f707b3          	add	a5,a4,a5
  103ffc:	00900713          	li	a4,9
  104000:	00e78023          	sb	a4,0(a5)
  104004:	3600006f          	j	104364 <WriteScore+0x458>
  104008:	fee44703          	lbu	a4,-18(s0)
  10400c:	00600793          	li	a5,6
  104010:	00f70863          	beq	a4,a5,104020 <WriteScore+0x114>
  104014:	fee44703          	lbu	a4,-18(s0)
  104018:	00700793          	li	a5,7
  10401c:	08f71663          	bne	a4,a5,1040a8 <WriteScore+0x19c>
  104020:	fee44703          	lbu	a4,-18(s0)
  104024:	00600793          	li	a5,6
  104028:	00f70e63          	beq	a4,a5,104044 <WriteScore+0x138>
  10402c:	fef44703          	lbu	a4,-17(s0)
  104030:	01800793          	li	a5,24
  104034:	00f70863          	beq	a4,a5,104044 <WriteScore+0x138>
  104038:	fef44703          	lbu	a4,-17(s0)
  10403c:	01c00793          	li	a5,28
  104040:	02f71a63          	bne	a4,a5,104074 <WriteScore+0x168>
  104044:	fef44703          	lbu	a4,-17(s0)
  104048:	00070793          	mv	a5,a4
  10404c:	00279793          	slli	a5,a5,0x2
  104050:	00e787b3          	add	a5,a5,a4
  104054:	00379793          	slli	a5,a5,0x3
  104058:	00078713          	mv	a4,a5
  10405c:	fee44783          	lbu	a5,-18(s0)
  104060:	00f707b3          	add	a5,a4,a5
  104064:	07c00713          	li	a4,124
  104068:	00f707b3          	add	a5,a4,a5
  10406c:	00078023          	sb	zero,0(a5)
  104070:	2f40006f          	j	104364 <WriteScore+0x458>
  104074:	fef44703          	lbu	a4,-17(s0)
  104078:	00070793          	mv	a5,a4
  10407c:	00279793          	slli	a5,a5,0x2
  104080:	00e787b3          	add	a5,a5,a4
  104084:	00379793          	slli	a5,a5,0x3
  104088:	00078713          	mv	a4,a5
  10408c:	fee44783          	lbu	a5,-18(s0)
  104090:	00f707b3          	add	a5,a4,a5
  104094:	07c00713          	li	a4,124
  104098:	00f707b3          	add	a5,a4,a5
  10409c:	00900713          	li	a4,9
  1040a0:	00e78023          	sb	a4,0(a5)
  1040a4:	2c00006f          	j	104364 <WriteScore+0x458>
  1040a8:	fee44703          	lbu	a4,-18(s0)
  1040ac:	00900793          	li	a5,9
  1040b0:	00f70e63          	beq	a4,a5,1040cc <WriteScore+0x1c0>
  1040b4:	fee44703          	lbu	a4,-18(s0)
  1040b8:	00a00793          	li	a5,10
  1040bc:	00f70863          	beq	a4,a5,1040cc <WriteScore+0x1c0>
  1040c0:	fee44703          	lbu	a4,-18(s0)
  1040c4:	00b00793          	li	a5,11
  1040c8:	08f71c63          	bne	a4,a5,104160 <WriteScore+0x254>
  1040cc:	fee44703          	lbu	a4,-18(s0)
  1040d0:	00900793          	li	a5,9
  1040d4:	02f70463          	beq	a4,a5,1040fc <WriteScore+0x1f0>
  1040d8:	fee44703          	lbu	a4,-18(s0)
  1040dc:	00b00793          	li	a5,11
  1040e0:	00f70e63          	beq	a4,a5,1040fc <WriteScore+0x1f0>
  1040e4:	fef44703          	lbu	a4,-17(s0)
  1040e8:	01800793          	li	a5,24
  1040ec:	00f70863          	beq	a4,a5,1040fc <WriteScore+0x1f0>
  1040f0:	fef44703          	lbu	a4,-17(s0)
  1040f4:	01c00793          	li	a5,28
  1040f8:	02f71a63          	bne	a4,a5,10412c <WriteScore+0x220>
  1040fc:	fef44703          	lbu	a4,-17(s0)
  104100:	00070793          	mv	a5,a4
  104104:	00279793          	slli	a5,a5,0x2
  104108:	00e787b3          	add	a5,a5,a4
  10410c:	00379793          	slli	a5,a5,0x3
  104110:	00078713          	mv	a4,a5
  104114:	fee44783          	lbu	a5,-18(s0)
  104118:	00f707b3          	add	a5,a4,a5
  10411c:	07c00713          	li	a4,124
  104120:	00f707b3          	add	a5,a4,a5
  104124:	00078023          	sb	zero,0(a5)
  104128:	23c0006f          	j	104364 <WriteScore+0x458>
  10412c:	fef44703          	lbu	a4,-17(s0)
  104130:	00070793          	mv	a5,a4
  104134:	00279793          	slli	a5,a5,0x2
  104138:	00e787b3          	add	a5,a5,a4
  10413c:	00379793          	slli	a5,a5,0x3
  104140:	00078713          	mv	a4,a5
  104144:	fee44783          	lbu	a5,-18(s0)
  104148:	00f707b3          	add	a5,a4,a5
  10414c:	07c00713          	li	a4,124
  104150:	00f707b3          	add	a5,a4,a5
  104154:	00900713          	li	a4,9
  104158:	00e78023          	sb	a4,0(a5)
  10415c:	2080006f          	j	104364 <WriteScore+0x458>
  104160:	fee44703          	lbu	a4,-18(s0)
  104164:	00d00793          	li	a5,13
  104168:	00f70e63          	beq	a4,a5,104184 <WriteScore+0x278>
  10416c:	fee44703          	lbu	a4,-18(s0)
  104170:	00e00793          	li	a5,14
  104174:	00f70863          	beq	a4,a5,104184 <WriteScore+0x278>
  104178:	fee44703          	lbu	a4,-18(s0)
  10417c:	00f00793          	li	a5,15
  104180:	0af71e63          	bne	a4,a5,10423c <WriteScore+0x330>
  104184:	fee44703          	lbu	a4,-18(s0)
  104188:	00d00793          	li	a5,13
  10418c:	04f70663          	beq	a4,a5,1041d8 <WriteScore+0x2cc>
  104190:	fee44703          	lbu	a4,-18(s0)
  104194:	00e00793          	li	a5,14
  104198:	00f71e63          	bne	a4,a5,1041b4 <WriteScore+0x2a8>
  10419c:	fef44703          	lbu	a4,-17(s0)
  1041a0:	01800793          	li	a5,24
  1041a4:	02f70a63          	beq	a4,a5,1041d8 <WriteScore+0x2cc>
  1041a8:	fef44703          	lbu	a4,-17(s0)
  1041ac:	01a00793          	li	a5,26
  1041b0:	02f70463          	beq	a4,a5,1041d8 <WriteScore+0x2cc>
  1041b4:	fee44703          	lbu	a4,-18(s0)
  1041b8:	00f00793          	li	a5,15
  1041bc:	04f71663          	bne	a4,a5,104208 <WriteScore+0x2fc>
  1041c0:	fef44703          	lbu	a4,-17(s0)
  1041c4:	01900793          	li	a5,25
  1041c8:	00f70863          	beq	a4,a5,1041d8 <WriteScore+0x2cc>
  1041cc:	fef44703          	lbu	a4,-17(s0)
  1041d0:	01a00793          	li	a5,26
  1041d4:	02e7fa63          	bgeu	a5,a4,104208 <WriteScore+0x2fc>
  1041d8:	fef44703          	lbu	a4,-17(s0)
  1041dc:	00070793          	mv	a5,a4
  1041e0:	00279793          	slli	a5,a5,0x2
  1041e4:	00e787b3          	add	a5,a5,a4
  1041e8:	00379793          	slli	a5,a5,0x3
  1041ec:	00078713          	mv	a4,a5
  1041f0:	fee44783          	lbu	a5,-18(s0)
  1041f4:	00f707b3          	add	a5,a4,a5
  1041f8:	07c00713          	li	a4,124
  1041fc:	00f707b3          	add	a5,a4,a5
  104200:	00078023          	sb	zero,0(a5)
  104204:	1600006f          	j	104364 <WriteScore+0x458>
  104208:	fef44703          	lbu	a4,-17(s0)
  10420c:	00070793          	mv	a5,a4
  104210:	00279793          	slli	a5,a5,0x2
  104214:	00e787b3          	add	a5,a5,a4
  104218:	00379793          	slli	a5,a5,0x3
  10421c:	00078713          	mv	a4,a5
  104220:	fee44783          	lbu	a5,-18(s0)
  104224:	00f707b3          	add	a5,a4,a5
  104228:	07c00713          	li	a4,124
  10422c:	00f707b3          	add	a5,a4,a5
  104230:	00900713          	li	a4,9
  104234:	00e78023          	sb	a4,0(a5)
  104238:	12c0006f          	j	104364 <WriteScore+0x458>
  10423c:	fee44703          	lbu	a4,-18(s0)
  104240:	01100793          	li	a5,17
  104244:	00f70863          	beq	a4,a5,104254 <WriteScore+0x348>
  104248:	fee44703          	lbu	a4,-18(s0)
  10424c:	01200793          	li	a5,18
  104250:	08f71863          	bne	a4,a5,1042e0 <WriteScore+0x3d4>
  104254:	fee44703          	lbu	a4,-18(s0)
  104258:	01100793          	li	a5,17
  10425c:	02f70063          	beq	a4,a5,10427c <WriteScore+0x370>
  104260:	fee44703          	lbu	a4,-18(s0)
  104264:	01200793          	li	a5,18
  104268:	04f71263          	bne	a4,a5,1042ac <WriteScore+0x3a0>
  10426c:	fef44783          	lbu	a5,-17(s0)
  104270:	0017f793          	andi	a5,a5,1
  104274:	0ff7f793          	andi	a5,a5,255
  104278:	02079a63          	bnez	a5,1042ac <WriteScore+0x3a0>
  10427c:	fef44703          	lbu	a4,-17(s0)
  104280:	00070793          	mv	a5,a4
  104284:	00279793          	slli	a5,a5,0x2
  104288:	00e787b3          	add	a5,a5,a4
  10428c:	00379793          	slli	a5,a5,0x3
  104290:	00078713          	mv	a4,a5
  104294:	fee44783          	lbu	a5,-18(s0)
  104298:	00f707b3          	add	a5,a4,a5
  10429c:	07c00713          	li	a4,124
  1042a0:	00f707b3          	add	a5,a4,a5
  1042a4:	00078023          	sb	zero,0(a5)
  1042a8:	0bc0006f          	j	104364 <WriteScore+0x458>
  1042ac:	fef44703          	lbu	a4,-17(s0)
  1042b0:	00070793          	mv	a5,a4
  1042b4:	00279793          	slli	a5,a5,0x2
  1042b8:	00e787b3          	add	a5,a5,a4
  1042bc:	00379793          	slli	a5,a5,0x3
  1042c0:	00078713          	mv	a4,a5
  1042c4:	fee44783          	lbu	a5,-18(s0)
  1042c8:	00f707b3          	add	a5,a4,a5
  1042cc:	07c00713          	li	a4,124
  1042d0:	00f707b3          	add	a5,a4,a5
  1042d4:	00900713          	li	a4,9
  1042d8:	00e78023          	sb	a4,0(a5)
  1042dc:	0880006f          	j	104364 <WriteScore+0x458>
  1042e0:	fee44703          	lbu	a4,-18(s0)
  1042e4:	01400793          	li	a5,20
  1042e8:	06f71e63          	bne	a4,a5,104364 <WriteScore+0x458>
  1042ec:	fef44703          	lbu	a4,-17(s0)
  1042f0:	01900793          	li	a5,25
  1042f4:	00f70863          	beq	a4,a5,104304 <WriteScore+0x3f8>
  1042f8:	fef44703          	lbu	a4,-17(s0)
  1042fc:	01b00793          	li	a5,27
  104300:	02f71a63          	bne	a4,a5,104334 <WriteScore+0x428>
  104304:	fef44703          	lbu	a4,-17(s0)
  104308:	00070793          	mv	a5,a4
  10430c:	00279793          	slli	a5,a5,0x2
  104310:	00e787b3          	add	a5,a5,a4
  104314:	00379793          	slli	a5,a5,0x3
  104318:	00078713          	mv	a4,a5
  10431c:	fee44783          	lbu	a5,-18(s0)
  104320:	00f707b3          	add	a5,a4,a5
  104324:	07c00713          	li	a4,124
  104328:	00f707b3          	add	a5,a4,a5
  10432c:	00078023          	sb	zero,0(a5)
  104330:	0340006f          	j	104364 <WriteScore+0x458>
  104334:	fef44703          	lbu	a4,-17(s0)
  104338:	00070793          	mv	a5,a4
  10433c:	00279793          	slli	a5,a5,0x2
  104340:	00e787b3          	add	a5,a5,a4
  104344:	00379793          	slli	a5,a5,0x3
  104348:	00078713          	mv	a4,a5
  10434c:	fee44783          	lbu	a5,-18(s0)
  104350:	00f707b3          	add	a5,a4,a5
  104354:	07c00713          	li	a4,124
  104358:	00f707b3          	add	a5,a4,a5
  10435c:	00900713          	li	a4,9
  104360:	00e78023          	sb	a4,0(a5)
  104364:	fee44783          	lbu	a5,-18(s0)
  104368:	00178793          	addi	a5,a5,1
  10436c:	fef40723          	sb	a5,-18(s0)
  104370:	fee44703          	lbu	a4,-18(s0)
  104374:	01400793          	li	a5,20
  104378:	bce7f0e3          	bgeu	a5,a4,103f38 <WriteScore+0x2c>
  10437c:	fef44783          	lbu	a5,-17(s0)
  104380:	00178793          	addi	a5,a5,1
  104384:	fef407a3          	sb	a5,-17(s0)
  104388:	fef44703          	lbu	a4,-17(s0)
  10438c:	01c00793          	li	a5,28
  104390:	b8e7fee3          	bgeu	a5,a4,103f2c <WriteScore+0x20>
  104394:	01800613          	li	a2,24
  104398:	01600593          	li	a1,22
  10439c:	fdc42503          	lw	a0,-36(s0)
  1043a0:	a85ff0ef          	jal	ra,103e24 <DisplayScore>
  1043a4:	00000013          	nop
  1043a8:	02c12083          	lw	ra,44(sp)
  1043ac:	02812403          	lw	s0,40(sp)
  1043b0:	03010113          	addi	sp,sp,48
  1043b4:	00008067          	ret

001043b8 <FieldInitialization>:
  1043b8:	fe010113          	addi	sp,sp,-32
  1043bc:	00812e23          	sw	s0,28(sp)
  1043c0:	02010413          	addi	s0,sp,32
  1043c4:	fe0407a3          	sb	zero,-17(s0)
  1043c8:	0940006f          	j	10445c <FieldInitialization+0xa4>
  1043cc:	fe040723          	sb	zero,-18(s0)
  1043d0:	0740006f          	j	104444 <FieldInitialization+0x8c>
  1043d4:	fef44783          	lbu	a5,-17(s0)
  1043d8:	02078463          	beqz	a5,104400 <FieldInitialization+0x48>
  1043dc:	fef44703          	lbu	a4,-17(s0)
  1043e0:	01600793          	li	a5,22
  1043e4:	00e7ee63          	bltu	a5,a4,104400 <FieldInitialization+0x48>
  1043e8:	fee44703          	lbu	a4,-18(s0)
  1043ec:	01300793          	li	a5,19
  1043f0:	00f70863          	beq	a4,a5,104400 <FieldInitialization+0x48>
  1043f4:	fee44703          	lbu	a4,-18(s0)
  1043f8:	01400793          	li	a5,20
  1043fc:	00f71663          	bne	a4,a5,104408 <FieldInitialization+0x50>
  104400:	00900713          	li	a4,9
  104404:	0080006f          	j	10440c <FieldInitialization+0x54>
  104408:	00000713          	li	a4,0
  10440c:	fef44683          	lbu	a3,-17(s0)
  104410:	00068793          	mv	a5,a3
  104414:	00279793          	slli	a5,a5,0x2
  104418:	00d787b3          	add	a5,a5,a3
  10441c:	00379793          	slli	a5,a5,0x3
  104420:	00078693          	mv	a3,a5
  104424:	fee44783          	lbu	a5,-18(s0)
  104428:	00f687b3          	add	a5,a3,a5
  10442c:	07c00693          	li	a3,124
  104430:	00f687b3          	add	a5,a3,a5
  104434:	00e78023          	sb	a4,0(a5)
  104438:	fee44783          	lbu	a5,-18(s0)
  10443c:	00178793          	addi	a5,a5,1
  104440:	fef40723          	sb	a5,-18(s0)
  104444:	fee44703          	lbu	a4,-18(s0)
  104448:	02700793          	li	a5,39
  10444c:	f8e7f4e3          	bgeu	a5,a4,1043d4 <FieldInitialization+0x1c>
  104450:	fef44783          	lbu	a5,-17(s0)
  104454:	00178793          	addi	a5,a5,1
  104458:	fef407a3          	sb	a5,-17(s0)
  10445c:	fef44703          	lbu	a4,-17(s0)
  104460:	01d00793          	li	a5,29
  104464:	f6e7f4e3          	bgeu	a5,a4,1043cc <FieldInitialization+0x14>
  104468:	00000013          	nop
  10446c:	00000013          	nop
  104470:	01c12403          	lw	s0,28(sp)
  104474:	02010113          	addi	sp,sp,32
  104478:	00008067          	ret

0010447c <_delay>:
  10447c:	fd010113          	addi	sp,sp,-48
  104480:	02112623          	sw	ra,44(sp)
  104484:	02812423          	sw	s0,40(sp)
  104488:	03010413          	addi	s0,sp,48
  10448c:	fca42e23          	sw	a0,-36(s0)
  104490:	fe041723          	sh	zero,-18(s0)
  104494:	fe042423          	sw	zero,-24(s0)
  104498:	0340006f          	j	1044cc <_delay+0x50>
  10449c:	001057b7          	lui	a5,0x105
  1044a0:	82078513          	addi	a0,a5,-2016 # 104820 <print_hex+0xa4>
  1044a4:	284000ef          	jal	ra,104728 <print>
  1044a8:	fe842783          	lw	a5,-24(s0)
  1044ac:	0017f793          	andi	a5,a5,1
  1044b0:	00079863          	bnez	a5,1044c0 <_delay+0x44>
  1044b4:	fee45783          	lhu	a5,-18(s0)
  1044b8:	00178793          	addi	a5,a5,1
  1044bc:	fef41723          	sh	a5,-18(s0)
  1044c0:	fe842783          	lw	a5,-24(s0)
  1044c4:	00178793          	addi	a5,a5,1
  1044c8:	fef42423          	sw	a5,-24(s0)
  1044cc:	fe842703          	lw	a4,-24(s0)
  1044d0:	fdc42783          	lw	a5,-36(s0)
  1044d4:	fcf764e3          	bltu	a4,a5,10449c <_delay+0x20>
  1044d8:	00000013          	nop
  1044dc:	00000013          	nop
  1044e0:	02c12083          	lw	ra,44(sp)
  1044e4:	02812403          	lw	s0,40(sp)
  1044e8:	03010113          	addi	sp,sp,48
  1044ec:	00008067          	ret

001044f0 <xorshift32>:
  1044f0:	fd010113          	addi	sp,sp,-48
  1044f4:	02812623          	sw	s0,44(sp)
  1044f8:	03010413          	addi	s0,sp,48
  1044fc:	fca42e23          	sw	a0,-36(s0)
  104500:	fdc42783          	lw	a5,-36(s0)
  104504:	0007a783          	lw	a5,0(a5)
  104508:	fef42623          	sw	a5,-20(s0)
  10450c:	fec42783          	lw	a5,-20(s0)
  104510:	00d79793          	slli	a5,a5,0xd
  104514:	fec42703          	lw	a4,-20(s0)
  104518:	00f747b3          	xor	a5,a4,a5
  10451c:	fef42623          	sw	a5,-20(s0)
  104520:	fec42783          	lw	a5,-20(s0)
  104524:	0117d793          	srli	a5,a5,0x11
  104528:	fec42703          	lw	a4,-20(s0)
  10452c:	00f747b3          	xor	a5,a4,a5
  104530:	fef42623          	sw	a5,-20(s0)
  104534:	fec42783          	lw	a5,-20(s0)
  104538:	00579793          	slli	a5,a5,0x5
  10453c:	fec42703          	lw	a4,-20(s0)
  104540:	00f747b3          	xor	a5,a4,a5
  104544:	fef42623          	sw	a5,-20(s0)
  104548:	fdc42783          	lw	a5,-36(s0)
  10454c:	fec42703          	lw	a4,-20(s0)
  104550:	00e7a023          	sw	a4,0(a5)
  104554:	fec42783          	lw	a5,-20(s0)
  104558:	00078513          	mv	a0,a5
  10455c:	02c12403          	lw	s0,44(sp)
  104560:	03010113          	addi	sp,sp,48
  104564:	00008067          	ret

00104568 <generateRandomBinary>:
  104568:	ff010113          	addi	sp,sp,-16
  10456c:	00112623          	sw	ra,12(sp)
  104570:	00812423          	sw	s0,8(sp)
  104574:	01010413          	addi	s0,sp,16
  104578:	07400513          	li	a0,116
  10457c:	f75ff0ef          	jal	ra,1044f0 <xorshift32>
  104580:	00050793          	mv	a5,a0
  104584:	0017f793          	andi	a5,a5,1
  104588:	00078513          	mv	a0,a5
  10458c:	00c12083          	lw	ra,12(sp)
  104590:	00812403          	lw	s0,8(sp)
  104594:	01010113          	addi	sp,sp,16
  104598:	00008067          	ret

0010459c <generateRandomNumber>:
  10459c:	fd010113          	addi	sp,sp,-48
  1045a0:	02112623          	sw	ra,44(sp)
  1045a4:	02812423          	sw	s0,40(sp)
  1045a8:	03010413          	addi	s0,sp,48
  1045ac:	fca42e23          	sw	a0,-36(s0)
  1045b0:	fcb42c23          	sw	a1,-40(s0)
  1045b4:	fd842703          	lw	a4,-40(s0)
  1045b8:	fdc42783          	lw	a5,-36(s0)
  1045bc:	40f707b3          	sub	a5,a4,a5
  1045c0:	00178793          	addi	a5,a5,1
  1045c4:	fef42623          	sw	a5,-20(s0)
  1045c8:	07800513          	li	a0,120
  1045cc:	f25ff0ef          	jal	ra,1044f0 <xorshift32>
  1045d0:	00050713          	mv	a4,a0
  1045d4:	fec42783          	lw	a5,-20(s0)
  1045d8:	02f77733          	remu	a4,a4,a5
  1045dc:	fdc42783          	lw	a5,-36(s0)
  1045e0:	00f707b3          	add	a5,a4,a5
  1045e4:	fef42423          	sw	a5,-24(s0)
  1045e8:	fe842783          	lw	a5,-24(s0)
  1045ec:	00078513          	mv	a0,a5
  1045f0:	02c12083          	lw	ra,44(sp)
  1045f4:	02812403          	lw	s0,40(sp)
  1045f8:	03010113          	addi	sp,sp,48
  1045fc:	00008067          	ret

00104600 <main>:
  104600:	fe010113          	addi	sp,sp,-32
  104604:	00112e23          	sw	ra,28(sp)
  104608:	00812c23          	sw	s0,24(sp)
  10460c:	02010413          	addi	s0,sp,32
  104610:	020007b7          	lui	a5,0x2000
  104614:	00478793          	addi	a5,a5,4 # 2000004 <_etext+0x1efb7b0>
  104618:	0d900713          	li	a4,217
  10461c:	00e7a023          	sw	a4,0(a5)
  104620:	001057b7          	lui	a5,0x105
  104624:	83078513          	addi	a0,a5,-2000 # 104830 <print_hex+0xb4>
  104628:	100000ef          	jal	ra,104728 <print>
  10462c:	fe0407a3          	sb	zero,-17(s0)
  104630:	fe040723          	sb	zero,-18(s0)
  104634:	fe0406a3          	sb	zero,-19(s0)
  104638:	fe040623          	sb	zero,-20(s0)
  10463c:	fe0405a3          	sb	zero,-21(s0)
  104640:	030007b7          	lui	a5,0x3000
  104644:	0007a023          	sw	zero,0(a5) # 3000000 <_etext+0x2efb7ac>
  104648:	959fe0ef          	jal	ra,102fa0 <CharactersInit>
  10464c:	ab9fb0ef          	jal	ra,100104 <DisplayProjectName>
  104650:	000047b7          	lui	a5,0x4
  104654:	a9878513          	addi	a0,a5,-1384 # 3a98 <_ebss+0x3568>
  104658:	e25ff0ef          	jal	ra,10447c <_delay>
  10465c:	f89fb0ef          	jal	ra,1005e4 <DisplayCompanyName>
  104660:	000047b7          	lui	a5,0x4
  104664:	a9878513          	addi	a0,a5,-1384 # 3a98 <_ebss+0x3568>
  104668:	e15ff0ef          	jal	ra,10447c <_delay>
  10466c:	9c9fc0ef          	jal	ra,101034 <DisplayGameName>
  104670:	000047b7          	lui	a5,0x4
  104674:	a9878513          	addi	a0,a5,-1384 # 3a98 <_ebss+0x3568>
  104678:	e05ff0ef          	jal	ra,10447c <_delay>
  10467c:	d3dff0ef          	jal	ra,1043b8 <FieldInitialization>
  104680:	00900513          	li	a0,9
  104684:	b11fd0ef          	jal	ra,102194 <setScreenColor>
  104688:	00300613          	li	a2,3
  10468c:	00900593          	li	a1,9
  104690:	00500513          	li	a0,5
  104694:	c1cfd0ef          	jal	ra,101ab0 <DisplayHeart>
  104698:	00300613          	li	a2,3
  10469c:	00900593          	li	a1,9
  1046a0:	00f00513          	li	a0,15
  1046a4:	c0cfd0ef          	jal	ra,101ab0 <DisplayHeart>
  1046a8:	00300613          	li	a2,3
  1046ac:	00900593          	li	a1,9
  1046b0:	01900513          	li	a0,25
  1046b4:	bfcfd0ef          	jal	ra,101ab0 <DisplayHeart>
  1046b8:	000057b7          	lui	a5,0x5
  1046bc:	e2078513          	addi	a0,a5,-480 # 4e20 <_ebss+0x48f0>
  1046c0:	dbdff0ef          	jal	ra,10447c <_delay>
  1046c4:	00000013          	nop
  1046c8:	01c12083          	lw	ra,28(sp)
  1046cc:	01812403          	lw	s0,24(sp)
  1046d0:	02010113          	addi	sp,sp,32
  1046d4:	00008067          	ret

001046d8 <putchar>:
  1046d8:	fe010113          	addi	sp,sp,-32
  1046dc:	00112e23          	sw	ra,28(sp)
  1046e0:	00812c23          	sw	s0,24(sp)
  1046e4:	02010413          	addi	s0,sp,32
  1046e8:	00050793          	mv	a5,a0
  1046ec:	fef407a3          	sb	a5,-17(s0)
  1046f0:	fef44703          	lbu	a4,-17(s0)
  1046f4:	00a00793          	li	a5,10
  1046f8:	00f71663          	bne	a4,a5,104704 <putchar+0x2c>
  1046fc:	00d00513          	li	a0,13
  104700:	fd9ff0ef          	jal	ra,1046d8 <putchar>
  104704:	020007b7          	lui	a5,0x2000
  104708:	00878793          	addi	a5,a5,8 # 2000008 <_etext+0x1efb7b4>
  10470c:	fef44703          	lbu	a4,-17(s0)
  104710:	00e7a023          	sw	a4,0(a5)
  104714:	00000013          	nop
  104718:	01c12083          	lw	ra,28(sp)
  10471c:	01812403          	lw	s0,24(sp)
  104720:	02010113          	addi	sp,sp,32
  104724:	00008067          	ret

00104728 <print>:
  104728:	fe010113          	addi	sp,sp,-32
  10472c:	00112e23          	sw	ra,28(sp)
  104730:	00812c23          	sw	s0,24(sp)
  104734:	02010413          	addi	s0,sp,32
  104738:	fea42623          	sw	a0,-20(s0)
  10473c:	01c0006f          	j	104758 <print+0x30>
  104740:	fec42783          	lw	a5,-20(s0)
  104744:	00178713          	addi	a4,a5,1
  104748:	fee42623          	sw	a4,-20(s0)
  10474c:	0007c783          	lbu	a5,0(a5)
  104750:	00078513          	mv	a0,a5
  104754:	f85ff0ef          	jal	ra,1046d8 <putchar>
  104758:	fec42783          	lw	a5,-20(s0)
  10475c:	0007c783          	lbu	a5,0(a5)
  104760:	fe0790e3          	bnez	a5,104740 <print+0x18>
  104764:	00000013          	nop
  104768:	00000013          	nop
  10476c:	01c12083          	lw	ra,28(sp)
  104770:	01812403          	lw	s0,24(sp)
  104774:	02010113          	addi	sp,sp,32
  104778:	00008067          	ret

0010477c <print_hex>:
  10477c:	fd010113          	addi	sp,sp,-48
  104780:	02812623          	sw	s0,44(sp)
  104784:	03010413          	addi	s0,sp,48
  104788:	fca42e23          	sw	a0,-36(s0)
  10478c:	fcb42c23          	sw	a1,-40(s0)
  104790:	fd842783          	lw	a5,-40(s0)
  104794:	fff78793          	addi	a5,a5,-1
  104798:	00279793          	slli	a5,a5,0x2
  10479c:	fef42623          	sw	a5,-20(s0)
  1047a0:	03c0006f          	j	1047dc <print_hex+0x60>
  1047a4:	fec42783          	lw	a5,-20(s0)
  1047a8:	fdc42703          	lw	a4,-36(s0)
  1047ac:	00f757b3          	srl	a5,a4,a5
  1047b0:	00f7f793          	andi	a5,a5,15
  1047b4:	00105737          	lui	a4,0x105
  1047b8:	84070713          	addi	a4,a4,-1984 # 104840 <print_hex+0xc4>
  1047bc:	00f707b3          	add	a5,a4,a5
  1047c0:	0007c703          	lbu	a4,0(a5)
  1047c4:	020007b7          	lui	a5,0x2000
  1047c8:	00878793          	addi	a5,a5,8 # 2000008 <_etext+0x1efb7b4>
  1047cc:	00e7a023          	sw	a4,0(a5)
  1047d0:	fec42783          	lw	a5,-20(s0)
  1047d4:	ffc78793          	addi	a5,a5,-4
  1047d8:	fef42623          	sw	a5,-20(s0)
  1047dc:	fec42783          	lw	a5,-20(s0)
  1047e0:	fc07d2e3          	bgez	a5,1047a4 <print_hex+0x28>
  1047e4:	00000013          	nop
  1047e8:	00000013          	nop
  1047ec:	02c12403          	lw	s0,44(sp)
  1047f0:	03010113          	addi	sp,sp,48
  1047f4:	00008067          	ret
  1047f8:	3738                	fld	fa4,104(a4)
  1047fa:	0010                	0x10
  1047fc:	37d4                	fld	fa3,168(a5)
  1047fe:	0010                	0x10
  104800:	3858                	fld	fa4,176(s0)
  104802:	0010                	0x10
  104804:	3924                	fld	fs1,112(a0)
  104806:	0010                	0x10
  104808:	39c4                	fld	fs1,176(a1)
  10480a:	0010                	0x10
  10480c:	3a64                	fld	fs1,240(a2)
  10480e:	0010                	0x10
  104810:	3b30                	fld	fa2,112(a4)
  104812:	0010                	0x10
  104814:	3bec                	fld	fa1,240(a5)
  104816:	0010                	0x10
  104818:	3c6c                	fld	fa1,248(s0)
  10481a:	0010                	0x10
  10481c:	3d18                	fld	fa4,56(a0)
  10481e:	0010                	0x10
  104820:	645f 6c65 7961      	0x79616c65645f
  104826:	6320                	flw	fs0,64(a4)
  104828:	6c61                	lui	s8,0x18
  10482a:	656c                	flw	fa1,76(a0)
  10482c:	0064                	addi	s1,sp,12
  10482e:	0000                	unimp
  104830:	6554                	flw	fa3,12(a0)
  104832:	7274                	flw	fa3,100(a2)
  104834:	5369                	li	t1,-6
  104836:	7261                	lui	tp,0xffff8
  104838:	6a61                	lui	s4,0x18
  10483a:	0a21                	addi	s4,s4,8
  10483c:	0000                	unimp
  10483e:	0000                	unimp
  104840:	3130                	fld	fa2,96(a0)
  104842:	3332                	fld	ft6,296(sp)
  104844:	3534                	fld	fa3,104(a0)
  104846:	3736                	fld	fa4,360(sp)
  104848:	3938                	fld	fa4,112(a0)
  10484a:	4241                	li	tp,16
  10484c:	46454443          	fmadd.q	fs0,fa0,ft4,fs0,rmm
  104850:	0000                	unimp
	...
